ARM GAS  C:\Users\student\AppData\Local\Temp\ccSkcTa7.s 			page 1


   1              		.syntax unified
   2              		.cpu cortex-m3
   3              		.fpu softvfp
   4              		.eabi_attribute 20, 1
   5              		.eabi_attribute 21, 1
   6              		.eabi_attribute 23, 3
   7              		.eabi_attribute 24, 1
   8              		.eabi_attribute 25, 1
   9              		.eabi_attribute 26, 1
  10              		.eabi_attribute 30, 1
  11              		.eabi_attribute 34, 1
  12              		.eabi_attribute 18, 4
  13              		.thumb
  14              		.file	"display.c"
  15              		.text
  16              	.Ltext0:
  17              		.cfi_sections	.debug_frame
  18              		.section	.text.color565,"ax",%progbits
  19              		.align	2
  20              		.thumb
  21              		.thumb_func
  22              		.type	color565, %function
  23              	color565:
  24              	.LFB63:
  25              		.file 1 ".\\display.h"
   1:.\display.h   **** /* ========================================
   2:.\display.h   ****  *
   3:.\display.h   ****  * Copyright YOUR COMPANY, THE YEAR
   4:.\display.h   ****  * All Rights Reserved
   5:.\display.h   ****  * UNPUBLISHED, LICENSED SOFTWARE.
   6:.\display.h   ****  *
   7:.\display.h   ****  * CONFIDENTIAL AND PROPRIETARY INFORMATION
   8:.\display.h   ****  * WHICH IS THE PROPERTY OF your company.
   9:.\display.h   ****  *
  10:.\display.h   ****  * ========================================
  11:.\display.h   **** */
  12:.\display.h   **** 
  13:.\display.h   **** /* [] END OF FILE */
  14:.\display.h   **** 
  15:.\display.h   **** #ifndef DISPLAY_H
  16:.\display.h   **** #define DISPLAY_H
  17:.\display.h   **** 
  18:.\display.h   **** #include "project.h"
  19:.\display.h   **** 
  20:.\display.h   **** typedef uint16 color_t;
  21:.\display.h   **** 
  22:.\display.h   **** static color_t color565(uint8 red, uint8 green, uint8 blue) {
  26              		.loc 1 22 0
  27              		.cfi_startproc
  28              		@ args = 0, pretend = 0, frame = 0
  29              		@ frame_needed = 0, uses_anonymous_args = 0
  30              		@ link register save eliminated.
  31              	.LVL0:
  23:.\display.h   ****     return ((red & 0xF8) << 8) | ((green & 0xFC) << 3) | (blue >> 3);
  32              		.loc 1 23 0
  33 0000 00F0F800 		and	r0, r0, #248
  34              	.LVL1:
ARM GAS  C:\Users\student\AppData\Local\Temp\ccSkcTa7.s 			page 2


  35 0004 01F0FC01 		and	r1, r1, #252
  36              	.LVL2:
  37 0008 C900     		lsls	r1, r1, #3
  38 000a 41EA0020 		orr	r0, r1, r0, lsl #8
  24:.\display.h   **** }
  39              		.loc 1 24 0
  40 000e 40EAD200 		orr	r0, r0, r2, lsr #3
  41 0012 7047     		bx	lr
  42              		.cfi_endproc
  43              	.LFE63:
  44              		.size	color565, .-color565
  45              		.global	__aeabi_i2f
  46              		.global	__aeabi_fmul
  47              		.section	.text.randomFloat,"ax",%progbits
  48              		.align	2
  49              		.thumb
  50              		.thumb_func
  51              		.type	randomFloat, %function
  52              	randomFloat:
  53              	.LFB64:
  54              		.file 2 ".\\constants.h"
   1:.\constants.h **** /* ========================================
   2:.\constants.h ****  *
   3:.\constants.h ****  * Copyright YOUR COMPANY, THE YEAR
   4:.\constants.h ****  * All Rights Reserved
   5:.\constants.h ****  * UNPUBLISHED, LICENSED SOFTWARE.
   6:.\constants.h ****  *
   7:.\constants.h ****  * CONFIDENTIAL AND PROPRIETARY INFORMATION
   8:.\constants.h ****  * WHICH IS THE PROPERTY OF your company.
   9:.\constants.h ****  *
  10:.\constants.h ****  * ========================================
  11:.\constants.h **** */
  12:.\constants.h **** 
  13:.\constants.h **** /* [] END OF FILE */
  14:.\constants.h **** 
  15:.\constants.h **** #ifndef CONSTANTS_H
  16:.\constants.h **** #define CONSTANTS_H
  17:.\constants.h ****     
  18:.\constants.h **** #include "stdlib.h"
  19:.\constants.h **** 
  20:.\constants.h **** #define DISPLAY_WIDTH 320
  21:.\constants.h **** #define DISPLAY_HEIGHT 240
  22:.\constants.h **** #define BOARD_SIZE 4
  23:.\constants.h **** #define CELL_SIZE 60
  24:.\constants.h **** #define BORDER_WIDTH 2
  25:.\constants.h **** 
  26:.\constants.h **** #define TARGET_SQUARE 11
  27:.\constants.h ****     
  28:.\constants.h **** #define TOUCH_CUTOFF 4096
  29:.\constants.h ****     
  30:.\constants.h **** #define RANDOM_MOVE_DELAY 500
  31:.\constants.h ****     
  32:.\constants.h ****     
  33:.\constants.h **** // #define USE_TOUCH
  34:.\constants.h **** // #define USE_KEYPAD
  35:.\constants.h **** 
  36:.\constants.h **** static float randomFloat () { return (float) rand() / RAND_MAX; }    
ARM GAS  C:\Users\student\AppData\Local\Temp\ccSkcTa7.s 			page 3


  55              		.loc 2 36 0
  56              		.cfi_startproc
  57              		@ args = 0, pretend = 0, frame = 0
  58              		@ frame_needed = 0, uses_anonymous_args = 0
  59 0000 08B5     		push	{r3, lr}
  60              		.cfi_def_cfa_offset 8
  61              		.cfi_offset 3, -8
  62              		.cfi_offset 14, -4
  63              		.loc 2 36 0
  64 0002 FFF7FEFF 		bl	rand
  65              	.LVL3:
  66 0006 FFF7FEFF 		bl	__aeabi_i2f
  67              	.LVL4:
  68 000a 4FF04051 		mov	r1, #805306368
  69 000e FFF7FEFF 		bl	__aeabi_fmul
  70              	.LVL5:
  71 0012 08BD     		pop	{r3, pc}
  72              		.cfi_endproc
  73              	.LFE64:
  74              		.size	randomFloat, .-randomFloat
  75              		.section	.text.setWritingBounds,"ax",%progbits
  76              		.align	2
  77              		.global	setWritingBounds
  78              		.thumb
  79              		.thumb_func
  80              		.type	setWritingBounds, %function
  81              	setWritingBounds:
  82              	.LFB65:
  83              		.file 3 ".\\display.c"
   1:.\display.c   **** /* ========================================
   2:.\display.c   ****  *
   3:.\display.c   ****  * Copyright YOUR COMPANY, THE YEAR
   4:.\display.c   ****  * All Rights Reserved
   5:.\display.c   ****  * UNPUBLISHED, LICENSED SOFTWARE.
   6:.\display.c   ****  *
   7:.\display.c   ****  * CONFIDENTIAL AND PROPRIETARY INFORMATION
   8:.\display.c   ****  * WHICH IS THE PROPERTY OF your company.
   9:.\display.c   ****  *
  10:.\display.c   ****  * ========================================
  11:.\display.c   **** */
  12:.\display.c   **** 
  13:.\display.c   **** /* [] END OF FILE */
  14:.\display.c   **** 
  15:.\display.c   **** #include "display.h"
  16:.\display.c   **** #include "constants.h"
  17:.\display.c   **** #include "tft.h"
  18:.\display.c   **** #include "cells.h"
  19:.\display.c   **** 
  20:.\display.c   **** #define KEY_UP      0b1000
  21:.\display.c   **** #define KEY_DOWN    0b1001
  22:.\display.c   **** #define KEY_LEFT    0b1101
  23:.\display.c   **** #define KEY_RIGHT   0b0101
  24:.\display.c   **** 
  25:.\display.c   **** 
  26:.\display.c   **** #define KNOWN_LEFT  15
  27:.\display.c   **** #define KNOWN_RIGHT 45
  28:.\display.c   **** #define KNOWN_SIZE  30
ARM GAS  C:\Users\student\AppData\Local\Temp\ccSkcTa7.s 			page 4


  29:.\display.c   **** 
  30:.\display.c   **** const color_t* bg[] = { &BG_2, &BG_4, &BG_8, &BG_16, &BG_32, &BG_64, &BG_128, &BG_256, &BG_512, &BG
  31:.\display.c   **** const color_t* cell[] = { CELL_2, CELL_4, CELL_8, CELL_16, CELL_32, CELL_64, CELL_128, CELL_256, CE
  32:.\display.c   **** 
  33:.\display.c   **** 
  34:.\display.c   **** /*****************
  35:.\display.c   ****  * DISPLAY UTILS *
  36:.\display.c   ****  *****************/
  37:.\display.c   **** 
  38:.\display.c   **** void setWritingBounds(uint16 x, uint16 y, uint16 dx, uint16 dy) {
  84              		.loc 3 38 0
  85              		.cfi_startproc
  86              		@ args = 0, pretend = 0, frame = 0
  87              		@ frame_needed = 0, uses_anonymous_args = 0
  88              	.LVL6:
  89 0000 F8B5     		push	{r3, r4, r5, r6, r7, lr}
  90              		.cfi_def_cfa_offset 24
  91              		.cfi_offset 3, -24
  92              		.cfi_offset 4, -20
  93              		.cfi_offset 5, -16
  94              		.cfi_offset 6, -12
  95              		.cfi_offset 7, -8
  96              		.cfi_offset 14, -4
  97 0002 0746     		mov	r7, r0
  98 0004 0E46     		mov	r6, r1
  99              	.LVL7:
  39:.\display.c   ****     uint16 SC = x;
  40:.\display.c   ****     uint16 SP = y;
  41:.\display.c   ****     uint16 EC = x + dx - 1;
 100              		.loc 3 41 0
 101 0006 0244     		add	r2, r2, r0
 102              	.LVL8:
 103 0008 551E     		subs	r5, r2, #1
 104 000a ADB2     		uxth	r5, r5
 105              	.LVL9:
  42:.\display.c   ****     uint16 EP = y + dy - 1;
 106              		.loc 3 42 0
 107 000c 0B44     		add	r3, r3, r1
 108              	.LVL10:
 109 000e 5C1E     		subs	r4, r3, #1
 110 0010 A4B2     		uxth	r4, r4
 111              	.LVL11:
  43:.\display.c   **** 
  44:.\display.c   ****     write8_a0(0x2A);                 	// send Column Address Set command
 112              		.loc 3 44 0
 113 0012 2A20     		movs	r0, #42
 114              	.LVL12:
 115 0014 FFF7FEFF 		bl	write8_a0
 116              	.LVL13:
  45:.\display.c   ****     write8_a1(SC >> 8);                  // set SC[15:0]
 117              		.loc 3 45 0
 118 0018 380A     		lsrs	r0, r7, #8
 119 001a FFF7FEFF 		bl	write8_a1
 120              	.LVL14:
  46:.\display.c   ****     write8_a1(SC & 0x00FF);
 121              		.loc 3 46 0
 122 001e F8B2     		uxtb	r0, r7
ARM GAS  C:\Users\student\AppData\Local\Temp\ccSkcTa7.s 			page 5


 123 0020 FFF7FEFF 		bl	write8_a1
 124              	.LVL15:
  47:.\display.c   ****     write8_a1(EC >> 8);                 // set EC[15:0]
 125              		.loc 3 47 0
 126 0024 280A     		lsrs	r0, r5, #8
 127 0026 FFF7FEFF 		bl	write8_a1
 128              	.LVL16:
  48:.\display.c   ****     write8_a1(EC & 0x00FF);
 129              		.loc 3 48 0
 130 002a E8B2     		uxtb	r0, r5
 131 002c FFF7FEFF 		bl	write8_a1
 132              	.LVL17:
  49:.\display.c   ****     write8_a0(0x2B);                 	// send Page Address Set command
 133              		.loc 3 49 0
 134 0030 2B20     		movs	r0, #43
 135 0032 FFF7FEFF 		bl	write8_a0
 136              	.LVL18:
  50:.\display.c   ****     write8_a1(SP >> 8);                  // set SP[15:0]
 137              		.loc 3 50 0
 138 0036 300A     		lsrs	r0, r6, #8
 139 0038 FFF7FEFF 		bl	write8_a1
 140              	.LVL19:
  51:.\display.c   ****     write8_a1(SP & 0x00FF);
 141              		.loc 3 51 0
 142 003c F0B2     		uxtb	r0, r6
 143 003e FFF7FEFF 		bl	write8_a1
 144              	.LVL20:
  52:.\display.c   ****     write8_a1(EP >> 8);                 // set EP[15:0]
 145              		.loc 3 52 0
 146 0042 200A     		lsrs	r0, r4, #8
 147 0044 FFF7FEFF 		bl	write8_a1
 148              	.LVL21:
  53:.\display.c   ****     write8_a1(EP & 0x00FF);
 149              		.loc 3 53 0
 150 0048 E0B2     		uxtb	r0, r4
 151 004a FFF7FEFF 		bl	write8_a1
 152              	.LVL22:
 153 004e F8BD     		pop	{r3, r4, r5, r6, r7, pc}
 154              		.cfi_endproc
 155              	.LFE65:
 156              		.size	setWritingBounds, .-setWritingBounds
 157              		.section	.text.drawNumberedCell,"ax",%progbits
 158              		.align	2
 159              		.global	drawNumberedCell
 160              		.thumb
 161              		.thumb_func
 162              		.type	drawNumberedCell, %function
 163              	drawNumberedCell:
 164              	.LFB66:
  54:.\display.c   **** }
  55:.\display.c   **** 
  56:.\display.c   **** void drawNumberedCell(uint16 px, uint16 py, uint16 idx) {
 165              		.loc 3 56 0
 166              		.cfi_startproc
 167              		@ args = 0, pretend = 0, frame = 0
 168              		@ frame_needed = 0, uses_anonymous_args = 0
 169              	.LVL23:
ARM GAS  C:\Users\student\AppData\Local\Temp\ccSkcTa7.s 			page 6


 170 0000 2DE9F041 		push	{r4, r5, r6, r7, r8, lr}
 171              		.cfi_def_cfa_offset 24
 172              		.cfi_offset 4, -24
 173              		.cfi_offset 5, -20
 174              		.cfi_offset 6, -16
 175              		.cfi_offset 7, -12
 176              		.cfi_offset 8, -8
 177              		.cfi_offset 14, -4
  57:.\display.c   ****     const color_t* bg_ref = bg[idx];
 178              		.loc 3 57 0
 179 0004 254B     		ldr	r3, .L15
 180 0006 53F82260 		ldr	r6, [r3, r2, lsl #2]
 181              	.LVL24:
  58:.\display.c   ****     const color_t* cell_ref = cell[idx];
 182              		.loc 3 58 0
 183 000a 03EB8203 		add	r3, r3, r2, lsl #2
 184 000e DF6A     		ldr	r7, [r3, #44]
 185              	.LVL25:
  59:.\display.c   ****     
  60:.\display.c   ****     setWritingBounds(
  61:.\display.c   ****         DISPLAY_HEIGHT - (py + 1) * CELL_SIZE,
 186              		.loc 3 61 0
 187 0010 C943     		mvns	r1, r1
 188              	.LVL26:
  60:.\display.c   ****         DISPLAY_HEIGHT - (py + 1) * CELL_SIZE,
 189              		.loc 3 60 0
 190 0012 C1EB0111 		rsb	r1, r1, r1, lsl #4
 191 0016 8B00     		lsls	r3, r1, #2
 192 0018 F033     		adds	r3, r3, #240
 193 001a 9AB2     		uxth	r2, r3
 194              	.LVL27:
 195 001c C0EB0010 		rsb	r0, r0, r0, lsl #4
 196              	.LVL28:
 197 0020 8300     		lsls	r3, r0, #2
 198 0022 2833     		adds	r3, r3, #40
 199 0024 99B2     		uxth	r1, r3
 200 0026 1046     		mov	r0, r2
 201 0028 3C22     		movs	r2, #60
 202 002a 1346     		mov	r3, r2
 203 002c FFF7FEFF 		bl	setWritingBounds
 204              	.LVL29:
  62:.\display.c   ****         (DISPLAY_WIDTH - DISPLAY_HEIGHT) / 2 + (px) * CELL_SIZE,
  63:.\display.c   ****         CELL_SIZE, CELL_SIZE
  64:.\display.c   ****     );
  65:.\display.c   **** 
  66:.\display.c   ****     write8_a0(0x2C);                    // send Memory Write command
 205              		.loc 3 66 0
 206 0030 2C20     		movs	r0, #44
 207 0032 FFF7FEFF 		bl	write8_a0
 208              	.LVL30:
  67:.\display.c   ****     uint16 i, j;
  68:.\display.c   ****     for (j = 0; j < CELL_SIZE; j++) {
 209              		.loc 3 68 0
 210 0036 0025     		movs	r5, #0
 211 0038 28E0     		b	.L7
 212              	.LVL31:
 213              	.L11:
ARM GAS  C:\Users\student\AppData\Local\Temp\ccSkcTa7.s 			page 7


 214              	.LBB2:
  69:.\display.c   ****         for (i = 0; i < CELL_SIZE; i++) {
  70:.\display.c   ****             uint16 qx = j;
  71:.\display.c   ****             uint16 qy = CELL_SIZE - 1 - i;
 215              		.loc 3 71 0
 216 003a C4F13B03 		rsb	r3, r4, #59
 217 003e 9BB2     		uxth	r3, r3
 218              	.LVL32:
  72:.\display.c   ****             color_t color = (
  73:.\display.c   ****                 (qx < KNOWN_LEFT || qx >= KNOWN_RIGHT || qy < KNOWN_LEFT || qy >= KNOWN_RIGHT) ?
 219              		.loc 3 73 0
 220 0040 A5F10F02 		sub	r2, r5, #15
 221 0044 92B2     		uxth	r2, r2
  72:.\display.c   ****             color_t color = (
 222              		.loc 3 72 0
 223 0046 1D2A     		cmp	r2, #29
 224 0048 03D8     		bhi	.L8
 225              		.loc 3 73 0
 226 004a 0E2B     		cmp	r3, #14
 227 004c 01D9     		bls	.L8
 228              		.loc 3 73 0 is_stmt 0 discriminator 1
 229 004e 2C2B     		cmp	r3, #44
 230 0050 02D9     		bls	.L9
 231              	.L8:
  72:.\display.c   ****             color_t color = (
 232              		.loc 3 72 0 is_stmt 1 discriminator 1
 233 0052 B6F80080 		ldrh	r8, [r6]
 234 0056 09E0     		b	.L10
 235              	.L9:
  74:.\display.c   ****                 *bg_ref :
  75:.\display.c   ****                 cell_ref[qy * KNOWN_SIZE + qx - KNOWN_LEFT * KNOWN_SIZE - KNOWN_LEFT]
 236              		.loc 3 75 0 discriminator 3
 237 0058 C3EB0313 		rsb	r3, r3, r3, lsl #4
 238              	.LVL33:
 239 005c 5B00     		lsls	r3, r3, #1
 240 005e 2B44     		add	r3, r3, r5
 241 0060 03F10043 		add	r3, r3, #-2147483648
 242 0064 A3F2D113 		subw	r3, r3, #465
  72:.\display.c   ****             color_t color = (
 243              		.loc 3 72 0 discriminator 3
 244 0068 37F81380 		ldrh	r8, [r7, r3, lsl #1]
 245              	.L10:
 246              	.LVL34:
  76:.\display.c   ****             );
  77:.\display.c   ****             write8_a1(color >> 8);
 247              		.loc 3 77 0 discriminator 2
 248 006c 4FEA1820 		lsr	r0, r8, #8
 249 0070 FFF7FEFF 		bl	write8_a1
 250              	.LVL35:
  78:.\display.c   ****             write8_a1(color & 0x00ff);
 251              		.loc 3 78 0 discriminator 2
 252 0074 5FFA88F0 		uxtb	r0, r8
 253 0078 FFF7FEFF 		bl	write8_a1
 254              	.LVL36:
 255              	.LBE2:
  69:.\display.c   ****             uint16 qx = j;
 256              		.loc 3 69 0 discriminator 2
ARM GAS  C:\Users\student\AppData\Local\Temp\ccSkcTa7.s 			page 8


 257 007c 0134     		adds	r4, r4, #1
 258              	.LVL37:
 259 007e A4B2     		uxth	r4, r4
 260              	.LVL38:
 261 0080 00E0     		b	.L12
 262              	.LVL39:
 263              	.L13:
 264 0082 0024     		movs	r4, #0
 265              	.L12:
 266              	.LVL40:
 267 0084 3B2C     		cmp	r4, #59
 268 0086 D8D9     		bls	.L11
  68:.\display.c   ****         for (i = 0; i < CELL_SIZE; i++) {
 269              		.loc 3 68 0 discriminator 2
 270 0088 0135     		adds	r5, r5, #1
 271              	.LVL41:
 272 008a ADB2     		uxth	r5, r5
 273              	.LVL42:
 274              	.L7:
  68:.\display.c   ****         for (i = 0; i < CELL_SIZE; i++) {
 275              		.loc 3 68 0 is_stmt 0 discriminator 1
 276 008c 3B2D     		cmp	r5, #59
 277 008e F8D9     		bls	.L13
  79:.\display.c   ****         }
  80:.\display.c   ****     }
  81:.\display.c   ****      write8_a0(0x00); 
 278              		.loc 3 81 0 is_stmt 1
 279 0090 0020     		movs	r0, #0
 280 0092 FFF7FEFF 		bl	write8_a0
 281              	.LVL43:
 282 0096 BDE8F081 		pop	{r4, r5, r6, r7, r8, pc}
 283              	.LVL44:
 284              	.L16:
 285 009a 00BF     		.align	2
 286              	.L15:
 287 009c 00000000 		.word	.LANCHOR0
 288              		.cfi_endproc
 289              	.LFE66:
 290              		.size	drawNumberedCell, .-drawNumberedCell
 291              		.section	.text.drawEmptyCell,"ax",%progbits
 292              		.align	2
 293              		.global	drawEmptyCell
 294              		.thumb
 295              		.thumb_func
 296              		.type	drawEmptyCell, %function
 297              	drawEmptyCell:
 298              	.LFB67:
  82:.\display.c   **** };
  83:.\display.c   **** 
  84:.\display.c   **** void drawEmptyCell(uint16 px, uint16 py) {
 299              		.loc 3 84 0
 300              		.cfi_startproc
 301              		@ args = 0, pretend = 0, frame = 0
 302              		@ frame_needed = 0, uses_anonymous_args = 0
 303              	.LVL45:
 304 0000 70B5     		push	{r4, r5, r6, lr}
 305              		.cfi_def_cfa_offset 16
ARM GAS  C:\Users\student\AppData\Local\Temp\ccSkcTa7.s 			page 9


 306              		.cfi_offset 4, -16
 307              		.cfi_offset 5, -12
 308              		.cfi_offset 6, -8
 309              		.cfi_offset 14, -4
 310 0002 0646     		mov	r6, r0
 311 0004 0C46     		mov	r4, r1
  85:.\display.c   ****     const color_t color = color565(143, 122, 102);
 312              		.loc 3 85 0
 313 0006 8F20     		movs	r0, #143
 314              	.LVL46:
 315 0008 7A21     		movs	r1, #122
 316              	.LVL47:
 317 000a 6622     		movs	r2, #102
 318 000c FFF7FEFF 		bl	color565
 319              	.LVL48:
 320 0010 0546     		mov	r5, r0
 321              	.LVL49:
  86:.\display.c   ****     
  87:.\display.c   ****     setWritingBounds(
  88:.\display.c   ****         DISPLAY_HEIGHT - (py + 1) * CELL_SIZE,
 322              		.loc 3 88 0
 323 0012 E343     		mvns	r3, r4
  87:.\display.c   ****         DISPLAY_HEIGHT - (py + 1) * CELL_SIZE,
 324              		.loc 3 87 0
 325 0014 C3EB0313 		rsb	r3, r3, r3, lsl #4
 326 0018 9A00     		lsls	r2, r3, #2
 327 001a F032     		adds	r2, r2, #240
 328 001c 90B2     		uxth	r0, r2
 329 001e C6EB0616 		rsb	r6, r6, r6, lsl #4
 330 0022 B300     		lsls	r3, r6, #2
 331 0024 2833     		adds	r3, r3, #40
 332 0026 99B2     		uxth	r1, r3
 333 0028 3C22     		movs	r2, #60
 334 002a 1346     		mov	r3, r2
 335 002c FFF7FEFF 		bl	setWritingBounds
 336              	.LVL50:
  89:.\display.c   ****         (DISPLAY_WIDTH - DISPLAY_HEIGHT) / 2 + (px) * CELL_SIZE,
  90:.\display.c   ****         CELL_SIZE, CELL_SIZE
  91:.\display.c   ****     );
  92:.\display.c   ****     
  93:.\display.c   ****     write8_a0(0x2C);                    // send Memory Write command
 337              		.loc 3 93 0
 338 0030 2C20     		movs	r0, #44
 339 0032 FFF7FEFF 		bl	write8_a0
 340              	.LVL51:
  94:.\display.c   ****     uint16 i;
  95:.\display.c   ****     for (i = 0; i < CELL_SIZE * CELL_SIZE; i++) {
 341              		.loc 3 95 0
 342 0036 0024     		movs	r4, #0
 343 0038 08E0     		b	.L18
 344              	.LVL52:
 345              	.L19:
  96:.\display.c   ****         write8_a1(color >> 8);
 346              		.loc 3 96 0 discriminator 3
 347 003a C5F30720 		ubfx	r0, r5, #8, #8
 348 003e FFF7FEFF 		bl	write8_a1
 349              	.LVL53:
ARM GAS  C:\Users\student\AppData\Local\Temp\ccSkcTa7.s 			page 10


  97:.\display.c   ****         write8_a1(color & 0x00ff);
 350              		.loc 3 97 0 discriminator 3
 351 0042 E8B2     		uxtb	r0, r5
 352 0044 FFF7FEFF 		bl	write8_a1
 353              	.LVL54:
  95:.\display.c   ****         write8_a1(color >> 8);
 354              		.loc 3 95 0 discriminator 3
 355 0048 0134     		adds	r4, r4, #1
 356              	.LVL55:
 357 004a A4B2     		uxth	r4, r4
 358              	.LVL56:
 359              	.L18:
  95:.\display.c   ****         write8_a1(color >> 8);
 360              		.loc 3 95 0 is_stmt 0 discriminator 1
 361 004c B4F5616F 		cmp	r4, #3600
 362 0050 F3D3     		bcc	.L19
  98:.\display.c   ****     }
  99:.\display.c   ****     write8_a0(0x00); 
 363              		.loc 3 99 0 is_stmt 1
 364 0052 0020     		movs	r0, #0
 365 0054 FFF7FEFF 		bl	write8_a0
 366              	.LVL57:
 367 0058 70BD     		pop	{r4, r5, r6, pc}
 368              		.cfi_endproc
 369              	.LFE67:
 370              		.size	drawEmptyCell, .-drawEmptyCell
 371 005a 00BF     		.section	.text.drawRect,"ax",%progbits
 372              		.align	2
 373              		.global	drawRect
 374              		.thumb
 375              		.thumb_func
 376              		.type	drawRect, %function
 377              	drawRect:
 378              	.LFB68:
 100:.\display.c   **** }
 101:.\display.c   **** 
 102:.\display.c   **** 
 103:.\display.c   **** void drawRect(uint16 y, uint16 x, uint16 dy, uint16 dx, color_t color) {
 379              		.loc 3 103 0
 380              		.cfi_startproc
 381              		@ args = 4, pretend = 0, frame = 0
 382              		@ frame_needed = 0, uses_anonymous_args = 0
 383              	.LVL58:
 384 0000 F8B5     		push	{r3, r4, r5, r6, r7, lr}
 385              		.cfi_def_cfa_offset 24
 386              		.cfi_offset 3, -24
 387              		.cfi_offset 4, -20
 388              		.cfi_offset 5, -16
 389              		.cfi_offset 6, -12
 390              		.cfi_offset 7, -8
 391              		.cfi_offset 14, -4
 392 0002 0446     		mov	r4, r0
 393 0004 1646     		mov	r6, r2
 394 0006 1F46     		mov	r7, r3
 395 0008 BDF81850 		ldrh	r5, [sp, #24]
 104:.\display.c   ****     setWritingBounds(x, y, dx, dy);
 396              		.loc 3 104 0
ARM GAS  C:\Users\student\AppData\Local\Temp\ccSkcTa7.s 			page 11


 397 000c 0846     		mov	r0, r1
 398              	.LVL59:
 399 000e 2146     		mov	r1, r4
 400              	.LVL60:
 401 0010 1A46     		mov	r2, r3
 402              	.LVL61:
 403 0012 3346     		mov	r3, r6
 404              	.LVL62:
 405 0014 FFF7FEFF 		bl	setWritingBounds
 406              	.LVL63:
 105:.\display.c   **** 
 106:.\display.c   ****     write8_a0(0x2C);                    // send Memory Write command
 407              		.loc 3 106 0
 408 0018 2C20     		movs	r0, #44
 409 001a FFF7FEFF 		bl	write8_a0
 410              	.LVL64:
 107:.\display.c   ****     int i;
 108:.\display.c   ****     for (i=0; i<(dx*dy); i++)           // fill the square with the color orange
 411              		.loc 3 108 0
 412 001e 0024     		movs	r4, #0
 413 0020 06E0     		b	.L22
 414              	.LVL65:
 415              	.L23:
 109:.\display.c   **** 	{
 110:.\display.c   **** 		write8_a1(color >> 8); 			// 0xFF0F is the color orange
 416              		.loc 3 110 0 discriminator 3
 417 0022 280A     		lsrs	r0, r5, #8
 418 0024 FFF7FEFF 		bl	write8_a1
 419              	.LVL66:
 111:.\display.c   **** 		write8_a1(color & 0x00FF); 
 420              		.loc 3 111 0 discriminator 3
 421 0028 E8B2     		uxtb	r0, r5
 422 002a FFF7FEFF 		bl	write8_a1
 423              	.LVL67:
 108:.\display.c   **** 	{
 424              		.loc 3 108 0 discriminator 3
 425 002e 0134     		adds	r4, r4, #1
 426              	.LVL68:
 427              	.L22:
 108:.\display.c   **** 	{
 428              		.loc 3 108 0 is_stmt 0 discriminator 1
 429 0030 06FB07F3 		mul	r3, r6, r7
 430 0034 A342     		cmp	r3, r4
 431 0036 F4DC     		bgt	.L23
 112:.\display.c   **** 	}
 113:.\display.c   ****      write8_a0(0x00);                   // send NOP command to end writing process
 432              		.loc 3 113 0 is_stmt 1
 433 0038 0020     		movs	r0, #0
 434 003a FFF7FEFF 		bl	write8_a0
 435              	.LVL69:
 436 003e F8BD     		pop	{r3, r4, r5, r6, r7, pc}
 437              		.cfi_endproc
 438              	.LFE68:
 439              		.size	drawRect, .-drawRect
 440              		.section	.text.displayInit,"ax",%progbits
 441              		.align	2
 442              		.global	displayInit
ARM GAS  C:\Users\student\AppData\Local\Temp\ccSkcTa7.s 			page 12


 443              		.thumb
 444              		.thumb_func
 445              		.type	displayInit, %function
 446              	displayInit:
 447              	.LFB69:
 114:.\display.c   **** }
 115:.\display.c   **** 
 116:.\display.c   **** /*******************
 117:.\display.c   ****  * DISPLAY METHODS *
 118:.\display.c   ****  *******************/
 119:.\display.c   **** 
 120:.\display.c   **** uint8 displayInit() {
 448              		.loc 3 120 0
 449              		.cfi_startproc
 450              		@ args = 0, pretend = 0, frame = 0
 451              		@ frame_needed = 0, uses_anonymous_args = 0
 452 0000 00B5     		push	{lr}
 453              		.cfi_def_cfa_offset 4
 454              		.cfi_offset 14, -4
 455 0002 83B0     		sub	sp, sp, #12
 456              		.cfi_def_cfa_offset 16
 121:.\display.c   ****     tftStart();                         // initialize the TFT display    
 457              		.loc 3 121 0
 458 0004 FFF7FEFF 		bl	tftStart
 459              	.LVL70:
 122:.\display.c   ****     drawRect(0, 0, DISPLAY_WIDTH, DISPLAY_HEIGHT, color565(250, 248, 240));
 460              		.loc 3 122 0
 461 0008 FA20     		movs	r0, #250
 462 000a F821     		movs	r1, #248
 463 000c F022     		movs	r2, #240
 464 000e FFF7FEFF 		bl	color565
 465              	.LVL71:
 466 0012 0090     		str	r0, [sp]
 467 0014 0020     		movs	r0, #0
 468 0016 0146     		mov	r1, r0
 469 0018 4FF4A072 		mov	r2, #320
 470 001c F023     		movs	r3, #240
 471 001e FFF7FEFF 		bl	drawRect
 472              	.LVL72:
 123:.\display.c   ****     return 0;
 124:.\display.c   **** }
 473              		.loc 3 124 0
 474 0022 0020     		movs	r0, #0
 475 0024 03B0     		add	sp, sp, #12
 476              		.cfi_def_cfa_offset 4
 477              		@ sp needed
 478 0026 5DF804FB 		ldr	pc, [sp], #4
 479              		.cfi_endproc
 480              	.LFE69:
 481              		.size	displayInit, .-displayInit
 482 002a 00BF     		.section	.text.drawBoard,"ax",%progbits
 483              		.align	2
 484              		.global	drawBoard
 485              		.thumb
 486              		.thumb_func
 487              		.type	drawBoard, %function
 488              	drawBoard:
ARM GAS  C:\Users\student\AppData\Local\Temp\ccSkcTa7.s 			page 13


 489              	.LFB70:
 125:.\display.c   **** 
 126:.\display.c   **** 
 127:.\display.c   **** void drawBoard (uint16* board, uint16* oldBoard) {
 490              		.loc 3 127 0
 491              		.cfi_startproc
 492              		@ args = 0, pretend = 0, frame = 0
 493              		@ frame_needed = 0, uses_anonymous_args = 0
 494              	.LVL73:
 495 0000 F8B5     		push	{r3, r4, r5, r6, r7, lr}
 496              		.cfi_def_cfa_offset 24
 497              		.cfi_offset 3, -24
 498              		.cfi_offset 4, -20
 499              		.cfi_offset 5, -16
 500              		.cfi_offset 6, -12
 501              		.cfi_offset 7, -8
 502              		.cfi_offset 14, -4
 503 0002 0746     		mov	r7, r0
 504 0004 0E46     		mov	r6, r1
 505              	.LVL74:
 128:.\display.c   ****     int i, j;
 129:.\display.c   ****     for (j = 0; j < BOARD_SIZE; j++) {
 506              		.loc 3 129 0
 507 0006 0025     		movs	r5, #0
 508 0008 19E0     		b	.L28
 509              	.LVL75:
 510              	.L31:
 511              	.LBB3:
 130:.\display.c   ****         for (i = 0; i < BOARD_SIZE; i++) {
 131:.\display.c   ****             uint16 val = board[j*BOARD_SIZE + i];
 512              		.loc 3 131 0
 513 000a 04EB8503 		add	r3, r4, r5, lsl #2
 514 000e 37F81320 		ldrh	r2, [r7, r3, lsl #1]
 515              	.LVL76:
 132:.\display.c   ****             uint16 oldVal = oldBoard[j*BOARD_SIZE + i];
 516              		.loc 3 132 0
 517 0012 36F81330 		ldrh	r3, [r6, r3, lsl #1]
 518              	.LVL77:
 133:.\display.c   ****             if (val == oldVal) continue;
 519              		.loc 3 133 0
 520 0016 9A42     		cmp	r2, r3
 521 0018 0BD0     		beq	.L29
 134:.\display.c   ****             if (val > 0) drawNumberedCell(i, j, val-1);
 522              		.loc 3 134 0
 523 001a 32B1     		cbz	r2, .L30
 524              		.loc 3 134 0 is_stmt 0 discriminator 1
 525 001c 013A     		subs	r2, r2, #1
 526              	.LVL78:
 527 001e A0B2     		uxth	r0, r4
 528 0020 A9B2     		uxth	r1, r5
 529 0022 92B2     		uxth	r2, r2
 530              	.LVL79:
 531 0024 FFF7FEFF 		bl	drawNumberedCell
 532              	.LVL80:
 533 0028 03E0     		b	.L29
 534              	.LVL81:
 535              	.L30:
ARM GAS  C:\Users\student\AppData\Local\Temp\ccSkcTa7.s 			page 14


 135:.\display.c   ****             else drawEmptyCell(i, j);
 536              		.loc 3 135 0 is_stmt 1
 537 002a A0B2     		uxth	r0, r4
 538 002c A9B2     		uxth	r1, r5
 539 002e FFF7FEFF 		bl	drawEmptyCell
 540              	.LVL82:
 541              	.L29:
 542              	.LBE3:
 130:.\display.c   ****             uint16 val = board[j*BOARD_SIZE + i];
 543              		.loc 3 130 0 discriminator 2
 544 0032 0134     		adds	r4, r4, #1
 545              	.LVL83:
 546 0034 00E0     		b	.L32
 547              	.LVL84:
 548              	.L33:
 549 0036 0024     		movs	r4, #0
 550              	.L32:
 551              	.LVL85:
 130:.\display.c   ****             uint16 val = board[j*BOARD_SIZE + i];
 552              		.loc 3 130 0 is_stmt 0 discriminator 1
 553 0038 032C     		cmp	r4, #3
 554 003a E6DD     		ble	.L31
 129:.\display.c   ****         for (i = 0; i < BOARD_SIZE; i++) {
 555              		.loc 3 129 0 is_stmt 1 discriminator 2
 556 003c 0135     		adds	r5, r5, #1
 557              	.LVL86:
 558              	.L28:
 129:.\display.c   ****         for (i = 0; i < BOARD_SIZE; i++) {
 559              		.loc 3 129 0 is_stmt 0 discriminator 1
 560 003e 032D     		cmp	r5, #3
 561 0040 F9DD     		ble	.L33
 136:.\display.c   ****         }
 137:.\display.c   ****     }
 138:.\display.c   **** }
 562              		.loc 3 138 0 is_stmt 1
 563 0042 F8BD     		pop	{r3, r4, r5, r6, r7, pc}
 564              		.cfi_endproc
 565              	.LFE70:
 566              		.size	drawBoard, .-drawBoard
 567              		.section	.text.pollKeypadInput,"ax",%progbits
 568              		.align	2
 569              		.global	pollKeypadInput
 570              		.thumb
 571              		.thumb_func
 572              		.type	pollKeypadInput, %function
 573              	pollKeypadInput:
 574              	.LFB71:
 139:.\display.c   **** 
 140:.\display.c   **** /***************
 141:.\display.c   ****  * INPUT UTILS *
 142:.\display.c   ****  ***************/
 143:.\display.c   **** 
 144:.\display.c   **** 
 145:.\display.c   **** input_t pollKeypadInput() {
 575              		.loc 3 145 0
 576              		.cfi_startproc
 577              		@ args = 0, pretend = 0, frame = 0
ARM GAS  C:\Users\student\AppData\Local\Temp\ccSkcTa7.s 			page 15


 578              		@ frame_needed = 0, uses_anonymous_args = 0
 579 0000 08B5     		push	{r3, lr}
 580              		.cfi_def_cfa_offset 8
 581              		.cfi_offset 3, -8
 582              		.cfi_offset 14, -4
 583              	.L36:
 146:.\display.c   ****     for(;;) {
 147:.\display.c   ****         if (Data_Available_Read()) {
 584              		.loc 3 147 0
 585 0002 FFF7FEFF 		bl	Data_Available_Read
 586              	.LVL87:
 587 0006 0028     		cmp	r0, #0
 588 0008 FBD0     		beq	.L36
 148:.\display.c   ****             if (Input_Data_Read() == KEY_UP) return INPUT_KEY_UP;
 589              		.loc 3 148 0
 590 000a FFF7FEFF 		bl	Input_Data_Read
 591              	.LVL88:
 592 000e 0828     		cmp	r0, #8
 593 0010 0DD0     		beq	.L38
 149:.\display.c   ****             if (Input_Data_Read() == KEY_DOWN) return INPUT_KEY_DOWN;
 594              		.loc 3 149 0
 595 0012 FFF7FEFF 		bl	Input_Data_Read
 596              	.LVL89:
 597 0016 0928     		cmp	r0, #9
 598 0018 0BD0     		beq	.L39
 150:.\display.c   ****             if (Input_Data_Read() == KEY_LEFT) return INPUT_KEY_LEFT;
 599              		.loc 3 150 0
 600 001a FFF7FEFF 		bl	Input_Data_Read
 601              	.LVL90:
 602 001e 0D28     		cmp	r0, #13
 603 0020 09D0     		beq	.L40
 151:.\display.c   ****             if (Input_Data_Read() == KEY_RIGHT) return INPUT_KEY_RIGHT;
 604              		.loc 3 151 0
 605 0022 FFF7FEFF 		bl	Input_Data_Read
 606              	.LVL91:
 607 0026 0528     		cmp	r0, #5
 608 0028 07D1     		bne	.L41
 609 002a 0320     		movs	r0, #3
 610 002c 08BD     		pop	{r3, pc}
 611              	.L38:
 148:.\display.c   ****             if (Input_Data_Read() == KEY_DOWN) return INPUT_KEY_DOWN;
 612              		.loc 3 148 0
 613 002e 0020     		movs	r0, #0
 614 0030 08BD     		pop	{r3, pc}
 615              	.L39:
 149:.\display.c   ****             if (Input_Data_Read() == KEY_LEFT) return INPUT_KEY_LEFT;
 616              		.loc 3 149 0
 617 0032 0120     		movs	r0, #1
 618 0034 08BD     		pop	{r3, pc}
 619              	.L40:
 150:.\display.c   ****             if (Input_Data_Read() == KEY_RIGHT) return INPUT_KEY_RIGHT;
 620              		.loc 3 150 0
 621 0036 0220     		movs	r0, #2
 622 0038 08BD     		pop	{r3, pc}
 623              	.L41:
 152:.\display.c   ****             return INPUT_KEY_UNKNOWN;
 624              		.loc 3 152 0
ARM GAS  C:\Users\student\AppData\Local\Temp\ccSkcTa7.s 			page 16


 625 003a 0420     		movs	r0, #4
 153:.\display.c   ****         }
 154:.\display.c   ****     }
 155:.\display.c   **** }
 626              		.loc 3 155 0
 627 003c 08BD     		pop	{r3, pc}
 628              		.cfi_endproc
 629              	.LFE71:
 630              		.size	pollKeypadInput, .-pollKeypadInput
 631 003e 00BF     		.section	.text.pollTouchInput,"ax",%progbits
 632              		.align	2
 633              		.global	pollTouchInput
 634              		.thumb
 635              		.thumb_func
 636              		.type	pollTouchInput, %function
 637              	pollTouchInput:
 638              	.LFB72:
 156:.\display.c   **** 
 157:.\display.c   **** input_t pollTouchInput() {
 639              		.loc 3 157 0
 640              		.cfi_startproc
 641              		@ args = 0, pretend = 0, frame = 0
 642              		@ frame_needed = 0, uses_anonymous_args = 0
 643 0000 10B5     		push	{r4, lr}
 644              		.cfi_def_cfa_offset 8
 645              		.cfi_offset 4, -8
 646              		.cfi_offset 14, -4
 647              	.L44:
 158:.\display.c   ****     for (;;) {
 159:.\display.c   ****         if (TouchScreen_TouchDetect()) {
 648              		.loc 3 159 0
 649 0002 FFF7FEFF 		bl	TouchScreen_TouchDetect
 650              	.LVL92:
 651 0006 0028     		cmp	r0, #0
 652 0008 FBD0     		beq	.L44
 653              	.LBB4:
 160:.\display.c   ****             TouchScreen_ActivateX();
 654              		.loc 3 160 0
 655 000a FFF7FEFF 		bl	TouchScreen_ActivateX
 656              	.LVL93:
 161:.\display.c   ****             uint16 x = TouchScreen_Measure();
 657              		.loc 3 161 0
 658 000e FFF7FEFF 		bl	TouchScreen_Measure
 659              	.LVL94:
 660 0012 84B2     		uxth	r4, r0
 661              	.LVL95:
 162:.\display.c   ****             TouchScreen_ActivateY();
 662              		.loc 3 162 0
 663 0014 FFF7FEFF 		bl	TouchScreen_ActivateY
 664              	.LVL96:
 163:.\display.c   ****             uint16 y = TouchScreen_Measure();
 665              		.loc 3 163 0
 666 0018 FFF7FEFF 		bl	TouchScreen_Measure
 667              	.LVL97:
 668 001c 80B2     		uxth	r0, r0
 669              	.LVL98:
 164:.\display.c   ****             uint8 diag1 = (x > y);
ARM GAS  C:\Users\student\AppData\Local\Temp\ccSkcTa7.s 			page 17


 670              		.loc 3 164 0
 671 001e 8442     		cmp	r4, r0
 672 0020 94BF     		ite	ls
 673 0022 0023     		movls	r3, #0
 674 0024 0123     		movhi	r3, #1
 675              	.LVL99:
 165:.\display.c   ****             uint8 diag2 = ((x + y) > TOUCH_CUTOFF);
 676              		.loc 3 165 0
 677 0026 2044     		add	r0, r0, r4
 678              	.LVL100:
 679 0028 B0F5805F 		cmp	r0, #4096
 680 002c D4BF     		ite	le
 681 002e 0020     		movle	r0, #0
 682 0030 0120     		movgt	r0, #1
 683              	.LVL101:
 166:.\display.c   ****             if (diag1 && diag2) return INPUT_KEY_RIGHT;
 684              		.loc 3 166 0
 685 0032 03B1     		cbz	r3, .L45
 686              		.loc 3 166 0 is_stmt 0 discriminator 1
 687 0034 48B9     		cbnz	r0, .L50
 688              	.L45:
 167:.\display.c   ****             if (!diag1 && diag2) return INPUT_KEY_UP;
 689              		.loc 3 167 0 is_stmt 1
 690 0036 03B9     		cbnz	r3, .L47
 691              		.loc 3 167 0 is_stmt 0 discriminator 1
 692 0038 48B9     		cbnz	r0, .L51
 693              	.L47:
 168:.\display.c   ****             if (diag1 && !diag2) return INPUT_KEY_DOWN;
 694              		.loc 3 168 0 is_stmt 1
 695 003a 03B1     		cbz	r3, .L48
 696              		.loc 3 168 0 is_stmt 0 discriminator 1
 697 003c 48B1     		cbz	r0, .L52
 698              	.L48:
 169:.\display.c   ****             if (!diag1 && !diag2) return INPUT_KEY_LEFT;
 699              		.loc 3 169 0 is_stmt 1
 700 003e 002B     		cmp	r3, #0
 701 0040 DFD1     		bne	.L44
 702              		.loc 3 169 0 is_stmt 0 discriminator 1
 703 0042 0028     		cmp	r0, #0
 704 0044 DDD1     		bne	.L44
 705              		.loc 3 169 0
 706 0046 0220     		movs	r0, #2
 707              	.LVL102:
 708 0048 10BD     		pop	{r4, pc}
 709              	.LVL103:
 710              	.L50:
 166:.\display.c   ****             if (!diag1 && diag2) return INPUT_KEY_UP;
 711              		.loc 3 166 0 is_stmt 1
 712 004a 0320     		movs	r0, #3
 713              	.LVL104:
 714 004c 10BD     		pop	{r4, pc}
 715              	.LVL105:
 716              	.L51:
 167:.\display.c   ****             if (diag1 && !diag2) return INPUT_KEY_DOWN;
 717              		.loc 3 167 0
 718 004e 0020     		movs	r0, #0
 719              	.LVL106:
ARM GAS  C:\Users\student\AppData\Local\Temp\ccSkcTa7.s 			page 18


 720 0050 10BD     		pop	{r4, pc}
 721              	.LVL107:
 722              	.L52:
 168:.\display.c   ****             if (!diag1 && !diag2) return INPUT_KEY_LEFT;
 723              		.loc 3 168 0
 724 0052 0120     		movs	r0, #1
 725              	.LVL108:
 726              	.LBE4:
 170:.\display.c   ****         }
 171:.\display.c   ****     }
 172:.\display.c   **** }
 727              		.loc 3 172 0
 728 0054 10BD     		pop	{r4, pc}
 729              		.cfi_endproc
 730              	.LFE72:
 731              		.size	pollTouchInput, .-pollTouchInput
 732              		.global	__aeabi_fcmplt
 733 0056 00BF     		.section	.text.pollRandomInput,"ax",%progbits
 734              		.align	2
 735              		.global	pollRandomInput
 736              		.thumb
 737              		.thumb_func
 738              		.type	pollRandomInput, %function
 739              	pollRandomInput:
 740              	.LFB73:
 173:.\display.c   **** 
 174:.\display.c   **** input_t pollRandomInput() {
 741              		.loc 3 174 0
 742              		.cfi_startproc
 743              		@ args = 0, pretend = 0, frame = 0
 744              		@ frame_needed = 0, uses_anonymous_args = 0
 745 0000 10B5     		push	{r4, lr}
 746              		.cfi_def_cfa_offset 8
 747              		.cfi_offset 4, -8
 748              		.cfi_offset 14, -4
 175:.\display.c   ****     float rand = randomFloat();
 749              		.loc 3 175 0
 750 0002 FFF7FEFF 		bl	randomFloat
 751              	.LVL109:
 752 0006 0446     		mov	r4, r0
 753              	.LVL110:
 176:.\display.c   ****     CyDelay(RANDOM_MOVE_DELAY);
 754              		.loc 3 176 0
 755 0008 4FF4FA70 		mov	r0, #500
 756              	.LVL111:
 757 000c FFF7FEFF 		bl	CyDelay
 758              	.LVL112:
 177:.\display.c   ****     if (rand < 0.25) return INPUT_KEY_UP;
 759              		.loc 3 177 0
 760 0010 2046     		mov	r0, r4
 761 0012 4FF07A51 		mov	r1, #1048576000
 762 0016 FFF7FEFF 		bl	__aeabi_fcmplt
 763              	.LVL113:
 764 001a 68B9     		cbnz	r0, .L57
 178:.\display.c   ****     if (rand < 0.5) return INPUT_KEY_DOWN;
 765              		.loc 3 178 0
 766 001c 2046     		mov	r0, r4
ARM GAS  C:\Users\student\AppData\Local\Temp\ccSkcTa7.s 			page 19


 767 001e 4FF07C51 		mov	r1, #1056964608
 768 0022 FFF7FEFF 		bl	__aeabi_fcmplt
 769              	.LVL114:
 770 0026 48B9     		cbnz	r0, .L58
 179:.\display.c   ****     if (rand < 0.75) return INPUT_KEY_LEFT;
 771              		.loc 3 179 0
 772 0028 2046     		mov	r0, r4
 773 002a 4FF07D51 		mov	r1, #1061158912
 774 002e FFF7FEFF 		bl	__aeabi_fcmplt
 775              	.LVL115:
 776 0032 28B1     		cbz	r0, .L61
 777 0034 0220     		movs	r0, #2
 778 0036 10BD     		pop	{r4, pc}
 779              	.LVL116:
 780              	.L57:
 177:.\display.c   ****     if (rand < 0.25) return INPUT_KEY_UP;
 781              		.loc 3 177 0
 782 0038 0020     		movs	r0, #0
 783 003a 10BD     		pop	{r4, pc}
 784              	.LVL117:
 785              	.L58:
 178:.\display.c   ****     if (rand < 0.5) return INPUT_KEY_DOWN;
 786              		.loc 3 178 0
 787 003c 0120     		movs	r0, #1
 788 003e 10BD     		pop	{r4, pc}
 789              	.LVL118:
 790              	.L61:
 180:.\display.c   ****     return INPUT_KEY_UP;
 791              		.loc 3 180 0
 792 0040 0020     		movs	r0, #0
 181:.\display.c   **** }
 793              		.loc 3 181 0
 794 0042 10BD     		pop	{r4, pc}
 795              		.cfi_endproc
 796              	.LFE73:
 797              		.size	pollRandomInput, .-pollRandomInput
 798              		.section	.text.pollInput,"ax",%progbits
 799              		.align	2
 800              		.global	pollInput
 801              		.thumb
 802              		.thumb_func
 803              		.type	pollInput, %function
 804              	pollInput:
 805              	.LFB74:
 182:.\display.c   **** 
 183:.\display.c   **** input_t pollInput() {
 806              		.loc 3 183 0
 807              		.cfi_startproc
 808              		@ args = 0, pretend = 0, frame = 0
 809              		@ frame_needed = 0, uses_anonymous_args = 0
 810 0000 08B5     		push	{r3, lr}
 811              		.cfi_def_cfa_offset 8
 812              		.cfi_offset 3, -8
 813              		.cfi_offset 14, -4
 184:.\display.c   ****     #if defined(USE_TOUCH)
 185:.\display.c   ****         return pollTouchInput();
 186:.\display.c   ****     #elif defined(USE_KEYPAD)
ARM GAS  C:\Users\student\AppData\Local\Temp\ccSkcTa7.s 			page 20


 187:.\display.c   ****         return pollKeypadInput();
 188:.\display.c   ****     #else
 189:.\display.c   ****         return pollRandomInput();
 814              		.loc 3 189 0
 815 0002 FFF7FEFF 		bl	pollRandomInput
 816              	.LVL119:
 190:.\display.c   ****     #endif // USE_TOUCH
 191:.\display.c   **** }
 817              		.loc 3 191 0
 818 0006 08BD     		pop	{r3, pc}
 819              		.cfi_endproc
 820              	.LFE74:
 821              		.size	pollInput, .-pollInput
 822              		.section	.text.playBeep,"ax",%progbits
 823              		.align	2
 824              		.global	playBeep
 825              		.thumb
 826              		.thumb_func
 827              		.type	playBeep, %function
 828              	playBeep:
 829              	.LFB75:
 192:.\display.c   **** 
 193:.\display.c   **** /***************
 194:.\display.c   ****  * SOUND UTILS *
 195:.\display.c   ****  ***************/
 196:.\display.c   **** 
 197:.\display.c   **** void playBeep(uint16 length) {
 830              		.loc 3 197 0
 831              		.cfi_startproc
 832              		@ args = 0, pretend = 0, frame = 0
 833              		@ frame_needed = 0, uses_anonymous_args = 0
 834              	.LVL120:
 835 0000 10B5     		push	{r4, lr}
 836              		.cfi_def_cfa_offset 8
 837              		.cfi_offset 4, -8
 838              		.cfi_offset 14, -4
 839 0002 0446     		mov	r4, r0
 198:.\display.c   ****     Buzzer_Write(1);
 840              		.loc 3 198 0
 841 0004 0120     		movs	r0, #1
 842              	.LVL121:
 843 0006 FFF7FEFF 		bl	Buzzer_Write
 844              	.LVL122:
 199:.\display.c   ****     CyDelay(length);
 845              		.loc 3 199 0
 846 000a 2046     		mov	r0, r4
 847 000c FFF7FEFF 		bl	CyDelay
 848              	.LVL123:
 200:.\display.c   ****     Buzzer_Write(0);
 849              		.loc 3 200 0
 850 0010 0020     		movs	r0, #0
 851 0012 FFF7FEFF 		bl	Buzzer_Write
 852              	.LVL124:
 853 0016 10BD     		pop	{r4, pc}
 854              		.cfi_endproc
 855              	.LFE75:
 856              		.size	playBeep, .-playBeep
ARM GAS  C:\Users\student\AppData\Local\Temp\ccSkcTa7.s 			page 21


 857              		.section	.text.playWinSound,"ax",%progbits
 858              		.align	2
 859              		.global	playWinSound
 860              		.thumb
 861              		.thumb_func
 862              		.type	playWinSound, %function
 863              	playWinSound:
 864              	.LFB76:
 201:.\display.c   **** }
 202:.\display.c   **** 
 203:.\display.c   **** void playWinSound() {
 865              		.loc 3 203 0
 866              		.cfi_startproc
 867              		@ args = 0, pretend = 0, frame = 0
 868              		@ frame_needed = 0, uses_anonymous_args = 0
 869 0000 10B5     		push	{r4, lr}
 870              		.cfi_def_cfa_offset 8
 871              		.cfi_offset 4, -8
 872              		.cfi_offset 14, -4
 873              	.LVL125:
 204:.\display.c   ****     int i;
 205:.\display.c   ****     for (i = 0; i < 10; i++) {
 874              		.loc 3 205 0
 875 0002 0024     		movs	r4, #0
 876 0004 06E0     		b	.L68
 877              	.LVL126:
 878              	.L69:
 206:.\display.c   ****         playBeep(100);
 879              		.loc 3 206 0 discriminator 3
 880 0006 6420     		movs	r0, #100
 881 0008 FFF7FEFF 		bl	playBeep
 882              	.LVL127:
 207:.\display.c   ****         CyDelay(20);
 883              		.loc 3 207 0 discriminator 3
 884 000c 1420     		movs	r0, #20
 885 000e FFF7FEFF 		bl	CyDelay
 886              	.LVL128:
 205:.\display.c   ****         playBeep(100);
 887              		.loc 3 205 0 discriminator 3
 888 0012 0134     		adds	r4, r4, #1
 889              	.LVL129:
 890              	.L68:
 205:.\display.c   ****         playBeep(100);
 891              		.loc 3 205 0 is_stmt 0 discriminator 1
 892 0014 092C     		cmp	r4, #9
 893 0016 F6DD     		ble	.L69
 208:.\display.c   ****     }
 209:.\display.c   ****     playBeep(500);
 894              		.loc 3 209 0 is_stmt 1
 895 0018 4FF4FA70 		mov	r0, #500
 896 001c FFF7FEFF 		bl	playBeep
 897              	.LVL130:
 898 0020 10BD     		pop	{r4, pc}
 899              		.cfi_endproc
 900              	.LFE76:
 901              		.size	playWinSound, .-playWinSound
 902 0022 00BF     		.section	.text.playIllegalMoveSound,"ax",%progbits
ARM GAS  C:\Users\student\AppData\Local\Temp\ccSkcTa7.s 			page 22


 903              		.align	2
 904              		.global	playIllegalMoveSound
 905              		.thumb
 906              		.thumb_func
 907              		.type	playIllegalMoveSound, %function
 908              	playIllegalMoveSound:
 909              	.LFB77:
 210:.\display.c   **** }
 211:.\display.c   **** 
 212:.\display.c   **** void playIllegalMoveSound() {
 910              		.loc 3 212 0
 911              		.cfi_startproc
 912              		@ args = 0, pretend = 0, frame = 0
 913              		@ frame_needed = 0, uses_anonymous_args = 0
 914 0000 08B5     		push	{r3, lr}
 915              		.cfi_def_cfa_offset 8
 916              		.cfi_offset 3, -8
 917              		.cfi_offset 14, -4
 213:.\display.c   ****     playBeep(1000);
 918              		.loc 3 213 0
 919 0002 4FF47A70 		mov	r0, #1000
 920 0006 FFF7FEFF 		bl	playBeep
 921              	.LVL131:
 922 000a 08BD     		pop	{r3, pc}
 923              		.cfi_endproc
 924              	.LFE77:
 925              		.size	playIllegalMoveSound, .-playIllegalMoveSound
 926              		.global	cell
 927              		.global	bg
 928              		.data
 929              		.align	2
 930              		.set	.LANCHOR0,. + 0
 931              		.type	bg, %object
 932              		.size	bg, 44
 933              	bg:
 934 0000 00000000 		.word	BG_2
 935 0004 00000000 		.word	BG_4
 936 0008 00000000 		.word	BG_8
 937 000c 00000000 		.word	BG_16
 938 0010 00000000 		.word	BG_32
 939 0014 00000000 		.word	BG_64
 940 0018 00000000 		.word	BG_128
 941 001c 00000000 		.word	BG_256
 942 0020 00000000 		.word	BG_512
 943 0024 00000000 		.word	BG_1024
 944 0028 00000000 		.word	BG_2048
 945              		.type	cell, %object
 946              		.size	cell, 44
 947              	cell:
 948 002c 00000000 		.word	CELL_2
 949 0030 00000000 		.word	CELL_4
 950 0034 00000000 		.word	CELL_8
 951 0038 00000000 		.word	CELL_16
 952 003c 00000000 		.word	CELL_32
 953 0040 00000000 		.word	CELL_64
 954 0044 00000000 		.word	CELL_128
 955 0048 00000000 		.word	CELL_256
ARM GAS  C:\Users\student\AppData\Local\Temp\ccSkcTa7.s 			page 23


 956 004c 00000000 		.word	CELL_512
 957 0050 00000000 		.word	CELL_1024
 958 0054 00000000 		.word	CELL_2048
 959              		.text
 960              	.Letext0:
 961              		.file 4 "c:\\program files (x86)\\cypress\\psoc creator\\3.3\\psoc creator\\import\\gnu\\arm\\4.9.
 962              		.file 5 "c:\\program files (x86)\\cypress\\psoc creator\\3.3\\psoc creator\\import\\gnu\\arm\\4.9.
 963              		.file 6 "Generated_Source\\PSoC5/cytypes.h"
 964              		.file 7 "Generated_Source\\PSoC5/core_cm3.h"
 965              		.file 8 ".\\cells.h"
 966              		.file 9 ".\\tft.h"
 967              		.file 10 "c:\\program files (x86)\\cypress\\psoc creator\\3.3\\psoc creator\\import\\gnu\\arm\\4.9
 968              		.file 11 "Generated_Source\\PSoC5/Data_Available.h"
 969              		.file 12 "Generated_Source\\PSoC5/Input_Data.h"
 970              		.file 13 "Generated_Source\\PSoC5/TouchScreen.h"
 971              		.file 14 "Generated_Source\\PSoC5/CyLib.h"
 972              		.file 15 "Generated_Source\\PSoC5/Buzzer.h"