ARM GAS  C:\Users\student\AppData\Local\Temp\ccJdTGrb.s 			page 1


   1              		.syntax unified
   2              		.cpu cortex-m3
   3              		.fpu softvfp
   4              		.eabi_attribute 20, 1
   5              		.eabi_attribute 21, 1
   6              		.eabi_attribute 23, 3
   7              		.eabi_attribute 24, 1
   8              		.eabi_attribute 25, 1
   9              		.eabi_attribute 26, 1
  10              		.eabi_attribute 30, 1
  11              		.eabi_attribute 34, 1
  12              		.eabi_attribute 18, 4
  13              		.thumb
  14              		.file	"game.c"
  15              		.text
  16              	.Ltext0:
  17              		.cfi_sections	.debug_frame
  18              		.global	__aeabi_i2f
  19              		.global	__aeabi_fmul
  20              		.section	.text.randomFloat,"ax",%progbits
  21              		.align	2
  22              		.thumb
  23              		.thumb_func
  24              		.type	randomFloat, %function
  25              	randomFloat:
  26              	.LFB63:
  27              		.file 1 ".\\constants.h"
   1:.\constants.h **** /* ========================================
   2:.\constants.h ****  *
   3:.\constants.h ****  * Copyright YOUR COMPANY, THE YEAR
   4:.\constants.h ****  * All Rights Reserved
   5:.\constants.h ****  * UNPUBLISHED, LICENSED SOFTWARE.
   6:.\constants.h ****  *
   7:.\constants.h ****  * CONFIDENTIAL AND PROPRIETARY INFORMATION
   8:.\constants.h ****  * WHICH IS THE PROPERTY OF your company.
   9:.\constants.h ****  *
  10:.\constants.h ****  * ========================================
  11:.\constants.h **** */
  12:.\constants.h **** 
  13:.\constants.h **** /* [] END OF FILE */
  14:.\constants.h **** 
  15:.\constants.h **** #ifndef CONSTANTS_H
  16:.\constants.h **** #define CONSTANTS_H
  17:.\constants.h ****     
  18:.\constants.h **** #include "stdlib.h"
  19:.\constants.h **** 
  20:.\constants.h **** #define DISPLAY_WIDTH 320
  21:.\constants.h **** #define DISPLAY_HEIGHT 240
  22:.\constants.h **** #define BOARD_SIZE 4
  23:.\constants.h **** #define CELL_SIZE 60
  24:.\constants.h **** #define BORDER_WIDTH 2
  25:.\constants.h **** 
  26:.\constants.h **** #define TARGET_SQUARE 11
  27:.\constants.h ****     
  28:.\constants.h **** #define TOUCH_CUTOFF 4096
  29:.\constants.h ****     
  30:.\constants.h **** #define RANDOM_MOVE_DELAY 500
ARM GAS  C:\Users\student\AppData\Local\Temp\ccJdTGrb.s 			page 2


  31:.\constants.h ****     
  32:.\constants.h ****     
  33:.\constants.h **** // #define USE_TOUCH
  34:.\constants.h **** // #define USE_KEYPAD
  35:.\constants.h **** 
  36:.\constants.h **** static float randomFloat () { return (float) rand() / RAND_MAX; }    
  28              		.loc 1 36 0
  29              		.cfi_startproc
  30              		@ args = 0, pretend = 0, frame = 0
  31              		@ frame_needed = 0, uses_anonymous_args = 0
  32 0000 08B5     		push	{r3, lr}
  33              		.cfi_def_cfa_offset 8
  34              		.cfi_offset 3, -8
  35              		.cfi_offset 14, -4
  36              		.loc 1 36 0
  37 0002 FFF7FEFF 		bl	rand
  38              	.LVL0:
  39 0006 FFF7FEFF 		bl	__aeabi_i2f
  40              	.LVL1:
  41 000a 4FF04051 		mov	r1, #805306368
  42 000e FFF7FEFF 		bl	__aeabi_fmul
  43              	.LVL2:
  44 0012 08BD     		pop	{r3, pc}
  45              		.cfi_endproc
  46              	.LFE63:
  47              		.size	randomFloat, .-randomFloat
  48              		.section	.text.rotate,"ax",%progbits
  49              		.align	2
  50              		.global	rotate
  51              		.thumb
  52              		.thumb_func
  53              		.type	rotate, %function
  54              	rotate:
  55              	.LFB64:
  56              		.file 2 ".\\game.c"
   1:.\game.c      **** /* ========================================
   2:.\game.c      ****  *
   3:.\game.c      ****  * Copyright YOUR COMPANY, THE YEAR
   4:.\game.c      ****  * All Rights Reserved
   5:.\game.c      ****  * UNPUBLISHED, LICENSED SOFTWARE.
   6:.\game.c      ****  *
   7:.\game.c      ****  * CONFIDENTIAL AND PROPRIETARY INFORMATION
   8:.\game.c      ****  * WHICH IS THE PROPERTY OF your company.
   9:.\game.c      ****  *
  10:.\game.c      ****  * ========================================
  11:.\game.c      **** */
  12:.\game.c      **** 
  13:.\game.c      **** /* [] END OF FILE */
  14:.\game.c      **** 
  15:.\game.c      **** #include "project.h"
  16:.\game.c      **** #include "constants.h"
  17:.\game.c      **** #include "stdlib.h"
  18:.\game.c      **** 
  19:.\game.c      **** /********************
  20:.\game.c      ****  * HELPER FUNCTIONS *
  21:.\game.c      ****  ********************/
  22:.\game.c      **** 
ARM GAS  C:\Users\student\AppData\Local\Temp\ccJdTGrb.s 			page 3


  23:.\game.c      **** void rotate(uint16* board) {
  57              		.loc 2 23 0
  58              		.cfi_startproc
  59              		@ args = 0, pretend = 0, frame = 0
  60              		@ frame_needed = 0, uses_anonymous_args = 0
  61              		@ link register save eliminated.
  62              	.LVL3:
  63 0000 F0B4     		push	{r4, r5, r6, r7}
  64              		.cfi_def_cfa_offset 16
  65              		.cfi_offset 4, -16
  66              		.cfi_offset 5, -12
  67              		.cfi_offset 6, -8
  68              		.cfi_offset 7, -4
  69              	.LVL4:
  70              	.LBB2:
  24:.\game.c      ****     int tmp;
  25:.\game.c      ****     for (int i = 0; i < BOARD_SIZE / 2; i++) {
  71              		.loc 2 25 0
  72 0002 0025     		movs	r5, #0
  73 0004 26E0     		b	.L4
  74              	.LVL5:
  75              	.L5:
  76              	.LBB3:
  26:.\game.c      ****         for (int j = 0; j < BOARD_SIZE / 2; j++) {
  27:.\game.c      ****             tmp = board[BOARD_SIZE * j + i];
  77              		.loc 2 27 0 discriminator 3
  78 0006 05EB8302 		add	r2, r5, r3, lsl #2
  79 000a 30F81260 		ldrh	r6, [r0, r2, lsl #1]
  80              	.LVL6:
  28:.\game.c      ****             board[BOARD_SIZE * j + i] = board[BOARD_SIZE * (BOARD_SIZE - i - 1) + j];
  81              		.loc 2 28 0 discriminator 3
  82 000e C5F10301 		rsb	r1, r5, #3
  83 0012 03EB8101 		add	r1, r3, r1, lsl #2
  84 0016 30F81140 		ldrh	r4, [r0, r1, lsl #1]
  85 001a 20F81240 		strh	r4, [r0, r2, lsl #1]	@ movhi
  29:.\game.c      **** 			board[BOARD_SIZE * (BOARD_SIZE - i - 1) + j] = board[BOARD_SIZE * (BOARD_SIZE - j - 1) + BOARD_S
  86              		.loc 2 29 0 discriminator 3
  87 001e C3F10402 		rsb	r2, r3, #4
  88 0022 C5EB8202 		rsb	r2, r5, r2, lsl #2
  89 0026 6FF00044 		mvn	r4, #-2147483648
  90 002a 2244     		add	r2, r2, r4
  91 002c 30F81270 		ldrh	r7, [r0, r2, lsl #1]
  92 0030 20F81170 		strh	r7, [r0, r1, lsl #1]	@ movhi
  30:.\game.c      ****             board[BOARD_SIZE * (BOARD_SIZE - j - 1) + BOARD_SIZE - i - 1] = board[BOARD_SIZE * i + 
  93              		.loc 2 30 0 discriminator 3
  94 0034 691C     		adds	r1, r5, #1
  95 0036 C3EB8101 		rsb	r1, r3, r1, lsl #2
  96 003a 2144     		add	r1, r1, r4
  97 003c 30F81140 		ldrh	r4, [r0, r1, lsl #1]
  98 0040 20F81240 		strh	r4, [r0, r2, lsl #1]	@ movhi
  31:.\game.c      ****             board[BOARD_SIZE * i + BOARD_SIZE - j - 1] = tmp;
  99              		.loc 2 31 0 discriminator 3
 100 0044 20F81160 		strh	r6, [r0, r1, lsl #1]	@ movhi
  26:.\game.c      ****             tmp = board[BOARD_SIZE * j + i];
 101              		.loc 2 26 0 discriminator 3
 102 0048 0133     		adds	r3, r3, #1
 103              	.LVL7:
ARM GAS  C:\Users\student\AppData\Local\Temp\ccJdTGrb.s 			page 4


 104 004a 00E0     		b	.L6
 105              	.LVL8:
 106              	.L7:
 107              	.LBE3:
 108 004c 0023     		movs	r3, #0
 109              	.L6:
 110              	.LVL9:
 111              	.LBB4:
  26:.\game.c      ****             tmp = board[BOARD_SIZE * j + i];
 112              		.loc 2 26 0 is_stmt 0 discriminator 1
 113 004e 012B     		cmp	r3, #1
 114 0050 D9DD     		ble	.L5
 115              	.LBE4:
  25:.\game.c      ****         for (int j = 0; j < BOARD_SIZE / 2; j++) {
 116              		.loc 2 25 0 is_stmt 1 discriminator 2
 117 0052 0135     		adds	r5, r5, #1
 118              	.LVL10:
 119              	.L4:
  25:.\game.c      ****         for (int j = 0; j < BOARD_SIZE / 2; j++) {
 120              		.loc 2 25 0 is_stmt 0 discriminator 1
 121 0054 012D     		cmp	r5, #1
 122 0056 F9DD     		ble	.L7
 123              	.LBE2:
  32:.\game.c      ****         }
  33:.\game.c      ****     }
  34:.\game.c      **** }
 124              		.loc 2 34 0 is_stmt 1
 125 0058 F0BC     		pop	{r4, r5, r6, r7}
 126              		.cfi_restore 7
 127              		.cfi_restore 6
 128              		.cfi_restore 5
 129              		.cfi_restore 4
 130              		.cfi_def_cfa_offset 0
 131              	.LVL11:
 132 005a 7047     		bx	lr
 133              		.cfi_endproc
 134              	.LFE64:
 135              		.size	rotate, .-rotate
 136              		.global	__aeabi_f2iz
 137              		.global	__aeabi_f2d
 138              		.global	__aeabi_dcmplt
 139              		.section	.text.addRandomTile,"ax",%progbits
 140              		.align	2
 141              		.global	addRandomTile
 142              		.thumb
 143              		.thumb_func
 144              		.type	addRandomTile, %function
 145              	addRandomTile:
 146              	.LFB65:
  35:.\game.c      **** 
  36:.\game.c      **** void addRandomTile(uint16* board) {
 147              		.loc 2 36 0
 148              		.cfi_startproc
 149              		@ args = 0, pretend = 0, frame = 0
 150              		@ frame_needed = 0, uses_anonymous_args = 0
 151              	.LVL12:
 152 0000 70B5     		push	{r4, r5, r6, lr}
ARM GAS  C:\Users\student\AppData\Local\Temp\ccJdTGrb.s 			page 5


 153              		.cfi_def_cfa_offset 16
 154              		.cfi_offset 4, -16
 155              		.cfi_offset 5, -12
 156              		.cfi_offset 6, -8
 157              		.cfi_offset 14, -4
 158 0002 0446     		mov	r4, r0
 159              	.LVL13:
 160              	.LBB5:
  37:.\game.c      ****     int numEmpty = 0;
  38:.\game.c      ****     for (int i = 0; i < BOARD_SIZE*BOARD_SIZE; i++) numEmpty += (board[i] == 0);
 161              		.loc 2 38 0
 162 0004 0023     		movs	r3, #0
 163              	.LBE5:
  37:.\game.c      ****     int numEmpty = 0;
 164              		.loc 2 37 0
 165 0006 1D46     		mov	r5, r3
 166              	.LBB6:
 167              		.loc 2 38 0
 168 0008 05E0     		b	.L10
 169              	.LVL14:
 170              	.L11:
 171              		.loc 2 38 0 is_stmt 0 discriminator 3
 172 000a 34F81320 		ldrh	r2, [r4, r3, lsl #1]
 173 000e 002A     		cmp	r2, #0
 174 0010 08BF     		it	eq
 175 0012 0135     		addeq	r5, r5, #1
 176              	.LVL15:
 177 0014 0133     		adds	r3, r3, #1
 178              	.LVL16:
 179              	.L10:
 180              		.loc 2 38 0 discriminator 1
 181 0016 0F2B     		cmp	r3, #15
 182 0018 F7DD     		ble	.L11
 183              	.LBE6:
  39:.\game.c      ****     int idx = randomFloat() * numEmpty;
 184              		.loc 2 39 0 is_stmt 1
 185 001a FFF7FEFF 		bl	randomFloat
 186              	.LVL17:
 187 001e 0646     		mov	r6, r0
 188 0020 2846     		mov	r0, r5
 189 0022 FFF7FEFF 		bl	__aeabi_i2f
 190              	.LVL18:
 191 0026 0146     		mov	r1, r0
 192 0028 3046     		mov	r0, r6
 193 002a FFF7FEFF 		bl	__aeabi_fmul
 194              	.LVL19:
 195 002e FFF7FEFF 		bl	__aeabi_f2iz
 196              	.LVL20:
 197              	.LBB7:
  40:.\game.c      ****     int count = 0;
  41:.\game.c      ****     for (int i = 0; i < BOARD_SIZE*BOARD_SIZE; i++) {
 198              		.loc 2 41 0
 199 0032 0023     		movs	r3, #0
 200              	.LBE7:
  40:.\game.c      ****     int count = 0;
 201              		.loc 2 40 0
 202 0034 1946     		mov	r1, r3
ARM GAS  C:\Users\student\AppData\Local\Temp\ccJdTGrb.s 			page 6


 203              	.LBB8:
 204              		.loc 2 41 0
 205 0036 17E0     		b	.L12
 206              	.LVL21:
 207              	.L18:
  42:.\game.c      ****         if (board[i] != 0) continue;
 208              		.loc 2 42 0
 209 0038 04EB4305 		add	r5, r4, r3, lsl #1
 210 003c 34F81320 		ldrh	r2, [r4, r3, lsl #1]
 211 0040 8AB9     		cbnz	r2, .L13
  43:.\game.c      ****         if (count == idx) {
 212              		.loc 2 43 0
 213 0042 8142     		cmp	r1, r0
 214 0044 0ED1     		bne	.L14
  44:.\game.c      ****             board[i] = (randomFloat() < 0.9) ? 1 : 2;
 215              		.loc 2 44 0
 216 0046 FFF7FEFF 		bl	randomFloat
 217              	.LVL22:
 218 004a FFF7FEFF 		bl	__aeabi_f2d
 219              	.LVL23:
 220 004e 08A3     		adr	r3, .L23
 221 0050 D3E90023 		ldrd	r2, [r3]
 222 0054 FFF7FEFF 		bl	__aeabi_dcmplt
 223              	.LVL24:
 224 0058 08B1     		cbz	r0, .L21
 225 005a 0123     		movs	r3, #1
 226 005c 00E0     		b	.L15
 227              	.L21:
 228 005e 0223     		movs	r3, #2
 229              	.L15:
 230              		.loc 2 44 0 is_stmt 0 discriminator 4
 231 0060 2B80     		strh	r3, [r5]	@ movhi
  45:.\game.c      ****             return;
 232              		.loc 2 45 0 is_stmt 1 discriminator 4
 233 0062 70BD     		pop	{r4, r5, r6, pc}
 234              	.LVL25:
 235              	.L14:
  46:.\game.c      ****         }
  47:.\game.c      ****         count++;
 236              		.loc 2 47 0
 237 0064 0131     		adds	r1, r1, #1
 238              	.LVL26:
 239              	.L13:
  41:.\game.c      ****         if (board[i] != 0) continue;
 240              		.loc 2 41 0 discriminator 2
 241 0066 0133     		adds	r3, r3, #1
 242              	.LVL27:
 243              	.L12:
  41:.\game.c      ****         if (board[i] != 0) continue;
 244              		.loc 2 41 0 is_stmt 0 discriminator 1
 245 0068 0F2B     		cmp	r3, #15
 246 006a E5DD     		ble	.L18
 247 006c 70BD     		pop	{r4, r5, r6, pc}
 248              	.LVL28:
 249              	.L24:
 250 006e 00BF     		.align	3
 251              	.L23:
ARM GAS  C:\Users\student\AppData\Local\Temp\ccJdTGrb.s 			page 7


 252 0070 CDCCCCCC 		.word	-858993459
 253 0074 CCCCEC3F 		.word	1072483532
 254              	.LBE8:
 255              		.cfi_endproc
 256              	.LFE65:
 257              		.size	addRandomTile, .-addRandomTile
 258              		.section	.text.slideArray,"ax",%progbits
 259              		.align	2
 260              		.global	slideArray
 261              		.thumb
 262              		.thumb_func
 263              		.type	slideArray, %function
 264              	slideArray:
 265              	.LFB66:
  48:.\game.c      ****     }
  49:.\game.c      **** }
  50:.\game.c      **** 
  51:.\game.c      **** /******************
  52:.\game.c      ****  * MOVEMENT LOGIC *
  53:.\game.c      ****  ******************/
  54:.\game.c      **** 
  55:.\game.c      **** void slideArray(uint16* array, int* isMoved)
  56:.\game.c      **** {
 266              		.loc 2 56 0 is_stmt 1
 267              		.cfi_startproc
 268              		@ args = 0, pretend = 0, frame = 0
 269              		@ frame_needed = 0, uses_anonymous_args = 0
 270              		@ link register save eliminated.
 271              	.LVL29:
 272 0000 F0B4     		push	{r4, r5, r6, r7}
 273              		.cfi_def_cfa_offset 16
 274              		.cfi_offset 4, -16
 275              		.cfi_offset 5, -12
 276              		.cfi_offset 6, -8
 277              		.cfi_offset 7, -4
 278              	.LVL30:
  57:.\game.c      ****     int p = 0; int q = 0;
 279              		.loc 2 57 0
 280 0002 0023     		movs	r3, #0
 281 0004 1C46     		mov	r4, r3
  58:.\game.c      ****     // everything up to p-1 is frozen
  59:.\game.c      ****     // trying to move element at q;
  60:.\game.c      ****     while (q < BOARD_SIZE) {
 282              		.loc 2 60 0
 283 0006 21E0     		b	.L26
 284              	.LVL31:
 285              	.L32:
  61:.\game.c      ****         if (array[q] == 0) { q++; }
 286              		.loc 2 61 0
 287 0008 5D00     		lsls	r5, r3, #1
 288 000a 30F81320 		ldrh	r2, [r0, r3, lsl #1]
 289 000e 0AB9     		cbnz	r2, .L27
 290              		.loc 2 61 0 is_stmt 0 discriminator 1
 291 0010 0133     		adds	r3, r3, #1
 292              	.LVL32:
 293 0012 1BE0     		b	.L26
 294              	.L27:
ARM GAS  C:\Users\student\AppData\Local\Temp\ccJdTGrb.s 			page 8


  62:.\game.c      ****         else if (p == q) { q++; }
 295              		.loc 2 62 0 is_stmt 1
 296 0014 9C42     		cmp	r4, r3
 297 0016 01D1     		bne	.L29
 298              		.loc 2 62 0 is_stmt 0 discriminator 1
 299 0018 0133     		adds	r3, r3, #1
 300              	.LVL33:
 301 001a 17E0     		b	.L26
 302              	.L29:
  63:.\game.c      ****         else if (array[p] == 0) { array[p] = array[q]; array[q] = 0; q++; *isMoved = 1; }
 303              		.loc 2 63 0 is_stmt 1
 304 001c 6700     		lsls	r7, r4, #1
 305 001e 30F81460 		ldrh	r6, [r0, r4, lsl #1]
 306 0022 3EB9     		cbnz	r6, .L30
 307              		.loc 2 63 0 is_stmt 0 discriminator 1
 308 0024 20F81420 		strh	r2, [r0, r4, lsl #1]	@ movhi
 309 0028 0022     		movs	r2, #0
 310 002a 4253     		strh	r2, [r0, r5]	@ movhi
 311 002c 0133     		adds	r3, r3, #1
 312              	.LVL34:
 313 002e 0122     		movs	r2, #1
 314 0030 0A60     		str	r2, [r1]
 315 0032 0BE0     		b	.L26
 316              	.L30:
  64:.\game.c      ****         else if (array[p] == array[q]) { array[p] += 1; array[q] = 0; q++; p++; *isMoved = 1; }
 317              		.loc 2 64 0 is_stmt 1
 318 0034 B242     		cmp	r2, r6
 319 0036 08D1     		bne	.L31
 320              		.loc 2 64 0 is_stmt 0 discriminator 1
 321 0038 0136     		adds	r6, r6, #1
 322 003a C653     		strh	r6, [r0, r7]	@ movhi
 323 003c 0022     		movs	r2, #0
 324 003e 4253     		strh	r2, [r0, r5]	@ movhi
 325 0040 0133     		adds	r3, r3, #1
 326              	.LVL35:
 327 0042 0134     		adds	r4, r4, #1
 328              	.LVL36:
 329 0044 0122     		movs	r2, #1
 330 0046 0A60     		str	r2, [r1]
 331 0048 00E0     		b	.L26
 332              	.L31:
  65:.\game.c      ****         else { p++; }
 333              		.loc 2 65 0 is_stmt 1
 334 004a 0134     		adds	r4, r4, #1
 335              	.LVL37:
 336              	.L26:
  60:.\game.c      ****         if (array[q] == 0) { q++; }
 337              		.loc 2 60 0
 338 004c 032B     		cmp	r3, #3
 339 004e DBDD     		ble	.L32
  66:.\game.c      ****     }
  67:.\game.c      **** }
 340              		.loc 2 67 0
 341 0050 F0BC     		pop	{r4, r5, r6, r7}
 342              		.cfi_restore 7
 343              		.cfi_restore 6
 344              		.cfi_restore 5
ARM GAS  C:\Users\student\AppData\Local\Temp\ccJdTGrb.s 			page 9


 345              		.cfi_restore 4
 346              		.cfi_def_cfa_offset 0
 347              	.LVL38:
 348 0052 7047     		bx	lr
 349              		.cfi_endproc
 350              	.LFE66:
 351              		.size	slideArray, .-slideArray
 352              		.section	.text.moveLeftInplace,"ax",%progbits
 353              		.align	2
 354              		.global	moveLeftInplace
 355              		.thumb
 356              		.thumb_func
 357              		.type	moveLeftInplace, %function
 358              	moveLeftInplace:
 359              	.LFB67:
  68:.\game.c      **** 
  69:.\game.c      **** void moveLeftInplace(uint16* board) {
 360              		.loc 2 69 0
 361              		.cfi_startproc
 362              		@ args = 0, pretend = 0, frame = 8
 363              		@ frame_needed = 0, uses_anonymous_args = 0
 364              	.LVL39:
 365 0000 30B5     		push	{r4, r5, lr}
 366              		.cfi_def_cfa_offset 12
 367              		.cfi_offset 4, -12
 368              		.cfi_offset 5, -8
 369              		.cfi_offset 14, -4
 370 0002 83B0     		sub	sp, sp, #12
 371              		.cfi_def_cfa_offset 24
 372 0004 0546     		mov	r5, r0
  70:.\game.c      ****     int isMoved = 0;
 373              		.loc 2 70 0
 374 0006 0024     		movs	r4, #0
 375 0008 0194     		str	r4, [sp, #4]
 376              	.LVL40:
 377              	.LBB9:
  71:.\game.c      ****     for (int i = 0; i < BOARD_SIZE; i++) {
 378              		.loc 2 71 0
 379 000a 05E0     		b	.L35
 380              	.LVL41:
 381              	.L36:
  72:.\game.c      ****         slideArray(board + i*BOARD_SIZE, &isMoved);
 382              		.loc 2 72 0 discriminator 3
 383 000c 05EBC400 		add	r0, r5, r4, lsl #3
 384 0010 01A9     		add	r1, sp, #4
 385 0012 FFF7FEFF 		bl	slideArray
 386              	.LVL42:
  71:.\game.c      ****     for (int i = 0; i < BOARD_SIZE; i++) {
 387              		.loc 2 71 0 discriminator 3
 388 0016 0134     		adds	r4, r4, #1
 389              	.LVL43:
 390              	.L35:
  71:.\game.c      ****     for (int i = 0; i < BOARD_SIZE; i++) {
 391              		.loc 2 71 0 is_stmt 0 discriminator 1
 392 0018 032C     		cmp	r4, #3
 393 001a F7DD     		ble	.L36
 394              	.LBE9:
ARM GAS  C:\Users\student\AppData\Local\Temp\ccJdTGrb.s 			page 10


  73:.\game.c      ****     }
  74:.\game.c      ****     if (isMoved) { addRandomTile(board); }
 395              		.loc 2 74 0 is_stmt 1
 396 001c 019B     		ldr	r3, [sp, #4]
 397 001e 13B1     		cbz	r3, .L34
 398              		.loc 2 74 0 is_stmt 0 discriminator 1
 399 0020 2846     		mov	r0, r5
 400 0022 FFF7FEFF 		bl	addRandomTile
 401              	.LVL44:
 402              	.L34:
  75:.\game.c      **** }
 403              		.loc 2 75 0 is_stmt 1
 404 0026 03B0     		add	sp, sp, #12
 405              		.cfi_def_cfa_offset 12
 406              		@ sp needed
 407 0028 30BD     		pop	{r4, r5, pc}
 408              		.cfi_endproc
 409              	.LFE67:
 410              		.size	moveLeftInplace, .-moveLeftInplace
 411 002a 00BF     		.section	.text.moveLeft,"ax",%progbits
 412              		.align	2
 413              		.global	moveLeft
 414              		.thumb
 415              		.thumb_func
 416              		.type	moveLeft, %function
 417              	moveLeft:
 418              	.LFB68:
  76:.\game.c      **** 
  77:.\game.c      **** void moveLeft(uint16* board, uint16* newBoard) {
 419              		.loc 2 77 0
 420              		.cfi_startproc
 421              		@ args = 0, pretend = 0, frame = 0
 422              		@ frame_needed = 0, uses_anonymous_args = 0
 423              	.LVL45:
 424 0000 38B5     		push	{r3, r4, r5, lr}
 425              		.cfi_def_cfa_offset 16
 426              		.cfi_offset 3, -16
 427              		.cfi_offset 4, -12
 428              		.cfi_offset 5, -8
 429              		.cfi_offset 14, -4
  78:.\game.c      ****     memcpy(newBoard, board, sizeof(uint16) * BOARD_SIZE * BOARD_SIZE);
 430              		.loc 2 78 0
 431 0002 0568     		ldr	r5, [r0]	@ unaligned
 432 0004 4468     		ldr	r4, [r0, #4]	@ unaligned
 433 0006 8268     		ldr	r2, [r0, #8]	@ unaligned
 434 0008 C368     		ldr	r3, [r0, #12]	@ unaligned
 435 000a 0D60     		str	r5, [r1]	@ unaligned
 436 000c 4C60     		str	r4, [r1, #4]	@ unaligned
 437 000e 8A60     		str	r2, [r1, #8]	@ unaligned
 438 0010 CB60     		str	r3, [r1, #12]	@ unaligned
 439 0012 0569     		ldr	r5, [r0, #16]	@ unaligned
 440 0014 4469     		ldr	r4, [r0, #20]	@ unaligned
 441 0016 8269     		ldr	r2, [r0, #24]	@ unaligned
 442 0018 C369     		ldr	r3, [r0, #28]	@ unaligned
 443 001a 0D61     		str	r5, [r1, #16]	@ unaligned
 444 001c 4C61     		str	r4, [r1, #20]	@ unaligned
 445 001e 8A61     		str	r2, [r1, #24]	@ unaligned
ARM GAS  C:\Users\student\AppData\Local\Temp\ccJdTGrb.s 			page 11


 446 0020 CB61     		str	r3, [r1, #28]	@ unaligned
  79:.\game.c      ****     moveLeftInplace(newBoard);
 447              		.loc 2 79 0
 448 0022 0846     		mov	r0, r1
 449              	.LVL46:
 450 0024 FFF7FEFF 		bl	moveLeftInplace
 451              	.LVL47:
 452 0028 38BD     		pop	{r3, r4, r5, pc}
 453              		.cfi_endproc
 454              	.LFE68:
 455              		.size	moveLeft, .-moveLeft
 456 002a 00BF     		.section	.text.moveUp,"ax",%progbits
 457              		.align	2
 458              		.global	moveUp
 459              		.thumb
 460              		.thumb_func
 461              		.type	moveUp, %function
 462              	moveUp:
 463              	.LFB69:
  80:.\game.c      **** }
  81:.\game.c      **** 
  82:.\game.c      **** void moveUp(uint16* board, uint16* newBoard) {
 464              		.loc 2 82 0
 465              		.cfi_startproc
 466              		@ args = 0, pretend = 0, frame = 0
 467              		@ frame_needed = 0, uses_anonymous_args = 0
 468              	.LVL48:
 469 0000 38B5     		push	{r3, r4, r5, lr}
 470              		.cfi_def_cfa_offset 16
 471              		.cfi_offset 3, -16
 472              		.cfi_offset 4, -12
 473              		.cfi_offset 5, -8
 474              		.cfi_offset 14, -4
 475 0002 0C46     		mov	r4, r1
  83:.\game.c      ****     memcpy(newBoard, board, sizeof(uint16) * BOARD_SIZE * BOARD_SIZE);
 476              		.loc 2 83 0
 477 0004 0568     		ldr	r5, [r0]	@ unaligned
 478 0006 4168     		ldr	r1, [r0, #4]	@ unaligned
 479              	.LVL49:
 480 0008 8268     		ldr	r2, [r0, #8]	@ unaligned
 481 000a C368     		ldr	r3, [r0, #12]	@ unaligned
 482 000c 2560     		str	r5, [r4]	@ unaligned
 483 000e 6160     		str	r1, [r4, #4]	@ unaligned
 484 0010 A260     		str	r2, [r4, #8]	@ unaligned
 485 0012 E360     		str	r3, [r4, #12]	@ unaligned
 486 0014 0569     		ldr	r5, [r0, #16]	@ unaligned
 487 0016 4169     		ldr	r1, [r0, #20]	@ unaligned
 488 0018 8269     		ldr	r2, [r0, #24]	@ unaligned
 489 001a C369     		ldr	r3, [r0, #28]	@ unaligned
 490 001c 2561     		str	r5, [r4, #16]	@ unaligned
 491 001e 6161     		str	r1, [r4, #20]	@ unaligned
 492 0020 A261     		str	r2, [r4, #24]	@ unaligned
 493 0022 E361     		str	r3, [r4, #28]	@ unaligned
  84:.\game.c      ****     rotate(newBoard);
 494              		.loc 2 84 0
 495 0024 2046     		mov	r0, r4
 496              	.LVL50:
ARM GAS  C:\Users\student\AppData\Local\Temp\ccJdTGrb.s 			page 12


 497 0026 FFF7FEFF 		bl	rotate
 498              	.LVL51:
  85:.\game.c      ****     rotate(newBoard);
 499              		.loc 2 85 0
 500 002a 2046     		mov	r0, r4
 501 002c FFF7FEFF 		bl	rotate
 502              	.LVL52:
  86:.\game.c      ****     rotate(newBoard);
 503              		.loc 2 86 0
 504 0030 2046     		mov	r0, r4
 505 0032 FFF7FEFF 		bl	rotate
 506              	.LVL53:
  87:.\game.c      ****     moveLeftInplace(newBoard);
 507              		.loc 2 87 0
 508 0036 2046     		mov	r0, r4
 509 0038 FFF7FEFF 		bl	moveLeftInplace
 510              	.LVL54:
  88:.\game.c      ****     rotate(newBoard);
 511              		.loc 2 88 0
 512 003c 2046     		mov	r0, r4
 513 003e FFF7FEFF 		bl	rotate
 514              	.LVL55:
 515 0042 38BD     		pop	{r3, r4, r5, pc}
 516              		.cfi_endproc
 517              	.LFE69:
 518              		.size	moveUp, .-moveUp
 519              		.section	.text.moveRight,"ax",%progbits
 520              		.align	2
 521              		.global	moveRight
 522              		.thumb
 523              		.thumb_func
 524              		.type	moveRight, %function
 525              	moveRight:
 526              	.LFB70:
  89:.\game.c      **** }
  90:.\game.c      **** void moveRight(uint16* board, uint16* newBoard) {
 527              		.loc 2 90 0
 528              		.cfi_startproc
 529              		@ args = 0, pretend = 0, frame = 0
 530              		@ frame_needed = 0, uses_anonymous_args = 0
 531              	.LVL56:
 532 0000 38B5     		push	{r3, r4, r5, lr}
 533              		.cfi_def_cfa_offset 16
 534              		.cfi_offset 3, -16
 535              		.cfi_offset 4, -12
 536              		.cfi_offset 5, -8
 537              		.cfi_offset 14, -4
 538 0002 0C46     		mov	r4, r1
  91:.\game.c      ****     memcpy(newBoard, board, sizeof(uint16) * BOARD_SIZE * BOARD_SIZE);
 539              		.loc 2 91 0
 540 0004 0568     		ldr	r5, [r0]	@ unaligned
 541 0006 4168     		ldr	r1, [r0, #4]	@ unaligned
 542              	.LVL57:
 543 0008 8268     		ldr	r2, [r0, #8]	@ unaligned
 544 000a C368     		ldr	r3, [r0, #12]	@ unaligned
 545 000c 2560     		str	r5, [r4]	@ unaligned
 546 000e 6160     		str	r1, [r4, #4]	@ unaligned
ARM GAS  C:\Users\student\AppData\Local\Temp\ccJdTGrb.s 			page 13


 547 0010 A260     		str	r2, [r4, #8]	@ unaligned
 548 0012 E360     		str	r3, [r4, #12]	@ unaligned
 549 0014 0569     		ldr	r5, [r0, #16]	@ unaligned
 550 0016 4169     		ldr	r1, [r0, #20]	@ unaligned
 551 0018 8269     		ldr	r2, [r0, #24]	@ unaligned
 552 001a C369     		ldr	r3, [r0, #28]	@ unaligned
 553 001c 2561     		str	r5, [r4, #16]	@ unaligned
 554 001e 6161     		str	r1, [r4, #20]	@ unaligned
 555 0020 A261     		str	r2, [r4, #24]	@ unaligned
 556 0022 E361     		str	r3, [r4, #28]	@ unaligned
  92:.\game.c      ****     rotate(newBoard);
 557              		.loc 2 92 0
 558 0024 2046     		mov	r0, r4
 559              	.LVL58:
 560 0026 FFF7FEFF 		bl	rotate
 561              	.LVL59:
  93:.\game.c      ****     rotate(newBoard);
 562              		.loc 2 93 0
 563 002a 2046     		mov	r0, r4
 564 002c FFF7FEFF 		bl	rotate
 565              	.LVL60:
  94:.\game.c      ****     moveLeftInplace(newBoard);
 566              		.loc 2 94 0
 567 0030 2046     		mov	r0, r4
 568 0032 FFF7FEFF 		bl	moveLeftInplace
 569              	.LVL61:
  95:.\game.c      ****     rotate(newBoard);
 570              		.loc 2 95 0
 571 0036 2046     		mov	r0, r4
 572 0038 FFF7FEFF 		bl	rotate
 573              	.LVL62:
  96:.\game.c      ****     rotate(newBoard);
 574              		.loc 2 96 0
 575 003c 2046     		mov	r0, r4
 576 003e FFF7FEFF 		bl	rotate
 577              	.LVL63:
 578 0042 38BD     		pop	{r3, r4, r5, pc}
 579              		.cfi_endproc
 580              	.LFE70:
 581              		.size	moveRight, .-moveRight
 582              		.section	.text.moveDown,"ax",%progbits
 583              		.align	2
 584              		.global	moveDown
 585              		.thumb
 586              		.thumb_func
 587              		.type	moveDown, %function
 588              	moveDown:
 589              	.LFB71:
  97:.\game.c      **** }
  98:.\game.c      **** 
  99:.\game.c      **** void moveDown(uint16* board, uint16* newBoard) {
 590              		.loc 2 99 0
 591              		.cfi_startproc
 592              		@ args = 0, pretend = 0, frame = 0
 593              		@ frame_needed = 0, uses_anonymous_args = 0
 594              	.LVL64:
 595 0000 38B5     		push	{r3, r4, r5, lr}
ARM GAS  C:\Users\student\AppData\Local\Temp\ccJdTGrb.s 			page 14


 596              		.cfi_def_cfa_offset 16
 597              		.cfi_offset 3, -16
 598              		.cfi_offset 4, -12
 599              		.cfi_offset 5, -8
 600              		.cfi_offset 14, -4
 601 0002 0C46     		mov	r4, r1
 100:.\game.c      ****     memcpy(newBoard, board, sizeof(uint16) * BOARD_SIZE * BOARD_SIZE);
 602              		.loc 2 100 0
 603 0004 0568     		ldr	r5, [r0]	@ unaligned
 604 0006 4168     		ldr	r1, [r0, #4]	@ unaligned
 605              	.LVL65:
 606 0008 8268     		ldr	r2, [r0, #8]	@ unaligned
 607 000a C368     		ldr	r3, [r0, #12]	@ unaligned
 608 000c 2560     		str	r5, [r4]	@ unaligned
 609 000e 6160     		str	r1, [r4, #4]	@ unaligned
 610 0010 A260     		str	r2, [r4, #8]	@ unaligned
 611 0012 E360     		str	r3, [r4, #12]	@ unaligned
 612 0014 0569     		ldr	r5, [r0, #16]	@ unaligned
 613 0016 4169     		ldr	r1, [r0, #20]	@ unaligned
 614 0018 8269     		ldr	r2, [r0, #24]	@ unaligned
 615 001a C369     		ldr	r3, [r0, #28]	@ unaligned
 616 001c 2561     		str	r5, [r4, #16]	@ unaligned
 617 001e 6161     		str	r1, [r4, #20]	@ unaligned
 618 0020 A261     		str	r2, [r4, #24]	@ unaligned
 619 0022 E361     		str	r3, [r4, #28]	@ unaligned
 101:.\game.c      ****     rotate(newBoard);
 620              		.loc 2 101 0
 621 0024 2046     		mov	r0, r4
 622              	.LVL66:
 623 0026 FFF7FEFF 		bl	rotate
 624              	.LVL67:
 102:.\game.c      ****     moveLeftInplace(newBoard);
 625              		.loc 2 102 0
 626 002a 2046     		mov	r0, r4
 627 002c FFF7FEFF 		bl	moveLeftInplace
 628              	.LVL68:
 103:.\game.c      ****     rotate(newBoard);
 629              		.loc 2 103 0
 630 0030 2046     		mov	r0, r4
 631 0032 FFF7FEFF 		bl	rotate
 632              	.LVL69:
 104:.\game.c      ****     rotate(newBoard);
 633              		.loc 2 104 0
 634 0036 2046     		mov	r0, r4
 635 0038 FFF7FEFF 		bl	rotate
 636              	.LVL70:
 105:.\game.c      ****     rotate(newBoard);
 637              		.loc 2 105 0
 638 003c 2046     		mov	r0, r4
 639 003e FFF7FEFF 		bl	rotate
 640              	.LVL71:
 641 0042 38BD     		pop	{r3, r4, r5, pc}
 642              		.cfi_endproc
 643              	.LFE71:
 644              		.size	moveDown, .-moveDown
 645              		.section	.text.gameWon,"ax",%progbits
 646              		.align	2
ARM GAS  C:\Users\student\AppData\Local\Temp\ccJdTGrb.s 			page 15


 647              		.global	gameWon
 648              		.thumb
 649              		.thumb_func
 650              		.type	gameWon, %function
 651              	gameWon:
 652              	.LFB72:
 106:.\game.c      **** }
 107:.\game.c      **** 
 108:.\game.c      **** /************************
 109:.\game.c      ****  * GAME TERMINATE LOGIC *
 110:.\game.c      ****  ************************/
 111:.\game.c      **** 
 112:.\game.c      **** uint8 gameWon(uint16* board) {
 653              		.loc 2 112 0
 654              		.cfi_startproc
 655              		@ args = 0, pretend = 0, frame = 0
 656              		@ frame_needed = 0, uses_anonymous_args = 0
 657              		@ link register save eliminated.
 658              	.LVL72:
 113:.\game.c      ****     uint16 i;
 114:.\game.c      ****     for (i = 0; i < BOARD_SIZE * BOARD_SIZE; i++) {
 659              		.loc 2 114 0
 660 0000 0023     		movs	r3, #0
 661 0002 05E0     		b	.L48
 662              	.LVL73:
 663              	.L50:
 115:.\game.c      ****         if (board[i] >= TARGET_SQUARE) return 1;
 664              		.loc 2 115 0
 665 0004 30F81320 		ldrh	r2, [r0, r3, lsl #1]
 666 0008 0A2A     		cmp	r2, #10
 667 000a 05D8     		bhi	.L51
 114:.\game.c      ****         if (board[i] >= TARGET_SQUARE) return 1;
 668              		.loc 2 114 0 discriminator 2
 669 000c 0133     		adds	r3, r3, #1
 670              	.LVL74:
 671 000e 9BB2     		uxth	r3, r3
 672              	.LVL75:
 673              	.L48:
 114:.\game.c      ****         if (board[i] >= TARGET_SQUARE) return 1;
 674              		.loc 2 114 0 is_stmt 0 discriminator 1
 675 0010 0F2B     		cmp	r3, #15
 676 0012 F7D9     		bls	.L50
 116:.\game.c      ****     }
 117:.\game.c      ****     return 0;
 677              		.loc 2 117 0 is_stmt 1
 678 0014 0020     		movs	r0, #0
 679              	.LVL76:
 680 0016 7047     		bx	lr
 681              	.LVL77:
 682              	.L51:
 115:.\game.c      ****     }
 683              		.loc 2 115 0
 684 0018 0120     		movs	r0, #1
 685              	.LVL78:
 118:.\game.c      **** }
 686              		.loc 2 118 0
 687 001a 7047     		bx	lr
ARM GAS  C:\Users\student\AppData\Local\Temp\ccJdTGrb.s 			page 16


 688              		.cfi_endproc
 689              	.LFE72:
 690              		.size	gameWon, .-gameWon
 691              		.section	.text.boardUnchanged,"ax",%progbits
 692              		.align	2
 693              		.global	boardUnchanged
 694              		.thumb
 695              		.thumb_func
 696              		.type	boardUnchanged, %function
 697              	boardUnchanged:
 698              	.LFB73:
 119:.\game.c      **** 
 120:.\game.c      **** uint8 boardUnchanged(uint16* board, uint16* oldBoard) {
 699              		.loc 2 120 0
 700              		.cfi_startproc
 701              		@ args = 0, pretend = 0, frame = 0
 702              		@ frame_needed = 0, uses_anonymous_args = 0
 703              		@ link register save eliminated.
 704              	.LVL79:
 705 0000 10B4     		push	{r4}
 706              		.cfi_def_cfa_offset 4
 707              		.cfi_offset 4, -4
 708              	.LVL80:
 121:.\game.c      ****     uint16 i;
 122:.\game.c      ****     for (i = 0; i < BOARD_SIZE * BOARD_SIZE; i++) {
 709              		.loc 2 122 0
 710 0002 0023     		movs	r3, #0
 711 0004 07E0     		b	.L53
 712              	.LVL81:
 713              	.L55:
 123:.\game.c      ****         if (board[i] != oldBoard[i]) return 0;
 714              		.loc 2 123 0
 715 0006 30F81340 		ldrh	r4, [r0, r3, lsl #1]
 716 000a 31F81320 		ldrh	r2, [r1, r3, lsl #1]
 717 000e 9442     		cmp	r4, r2
 718 0010 05D1     		bne	.L56
 122:.\game.c      ****         if (board[i] != oldBoard[i]) return 0;
 719              		.loc 2 122 0 discriminator 2
 720 0012 0133     		adds	r3, r3, #1
 721              	.LVL82:
 722 0014 9BB2     		uxth	r3, r3
 723              	.LVL83:
 724              	.L53:
 122:.\game.c      ****         if (board[i] != oldBoard[i]) return 0;
 725              		.loc 2 122 0 is_stmt 0 discriminator 1
 726 0016 0F2B     		cmp	r3, #15
 727 0018 F5D9     		bls	.L55
 124:.\game.c      ****     }
 125:.\game.c      ****     return 1;
 728              		.loc 2 125 0 is_stmt 1
 729 001a 0120     		movs	r0, #1
 730              	.LVL84:
 731 001c 00E0     		b	.L54
 732              	.LVL85:
 733              	.L56:
 123:.\game.c      ****     }
 734              		.loc 2 123 0
ARM GAS  C:\Users\student\AppData\Local\Temp\ccJdTGrb.s 			page 17


 735 001e 0020     		movs	r0, #0
 736              	.LVL86:
 737              	.L54:
 126:.\game.c      **** }...
 738              		.loc 2 126 0
 739 0020 5DF8044B 		ldr	r4, [sp], #4
 740              		.cfi_restore 4
 741              		.cfi_def_cfa_offset 0
 742 0024 7047     		bx	lr
 743              		.cfi_endproc
 744              	.LFE73:
 745              		.size	boardUnchanged, .-boardUnchanged
 746 0026 00BF     		.text
 747              	.Letext0:
 748              		.file 3 "c:\\program files (x86)\\cypress\\psoc creator\\3.3\\psoc creator\\import\\gnu\\arm\\4.9.
 749              		.file 4 "c:\\program files (x86)\\cypress\\psoc creator\\3.3\\psoc creator\\import\\gnu\\arm\\4.9.
 750              		.file 5 "Generated_Source\\PSoC5/cytypes.h"
 751              		.file 6 "Generated_Source\\PSoC5/core_cm3.h"
 752              		.file 7 "c:\\program files (x86)\\cypress\\psoc creator\\3.3\\psoc creator\\import\\gnu\\arm\\4.9.