ARM GAS  C:\Users\student\AppData\Local\Temp\cc2j29X1.s 			page 1


   1              		.syntax unified
   2              		.cpu cortex-m3
   3              		.fpu softvfp
   4              		.eabi_attribute 20, 1
   5              		.eabi_attribute 21, 1
   6              		.eabi_attribute 23, 3
   7              		.eabi_attribute 24, 1
   8              		.eabi_attribute 25, 1
   9              		.eabi_attribute 26, 1
  10              		.eabi_attribute 30, 1
  11              		.eabi_attribute 34, 1
  12              		.eabi_attribute 18, 4
  13              		.thumb
  14              		.file	"main.c"
  15              		.text
  16              	.Ltext0:
  17              		.cfi_sections	.debug_frame
  18              		.section	.text.main,"ax",%progbits
  19              		.align	2
  20              		.global	main
  21              		.thumb
  22              		.thumb_func
  23              		.type	main, %function
  24              	main:
  25              	.LFB65:
  26              		.file 1 ".\\main.c"
   1:.\main.c      **** /* ========================================
   2:.\main.c      ****  *
   3:.\main.c      ****  * Copyright YOUR COMPANY, THE YEAR
   4:.\main.c      ****  * All Rights Reserved
   5:.\main.c      ****  * UNPUBLISHED, LICENSED SOFTWARE.
   6:.\main.c      ****  *
   7:.\main.c      ****  * CONFIDENTIAL AND PROPRIETARY INFORMATION
   8:.\main.c      ****  * WHICH IS THE PROPERTY OF your company.
   9:.\main.c      ****  *
  10:.\main.c      ****  * ========================================
  11:.\main.c      **** */
  12:.\main.c      **** #include <project.h>
  13:.\main.c      **** #include "tft.h"
  14:.\main.c      **** #include "display.h"
  15:.\main.c      **** #include "constants.h"
  16:.\main.c      **** #include "game.h"
  17:.\main.c      **** #include "stdlib.h"
  18:.\main.c      **** #include "time.h"
  19:.\main.c      **** 
  20:.\main.c      **** #define swapBoards tmp = board; board = scratchBoard; scratchBoard = tmp
  21:.\main.c      **** 
  22:.\main.c      **** uint16 board1[16] = {
  23:.\main.c      ****     0, 0, 0, 0,
  24:.\main.c      ****     0, 0, 0, 0,
  25:.\main.c      ****     0, 0, 0, 0,
  26:.\main.c      ****     0, 0, 0, 0
  27:.\main.c      **** };
  28:.\main.c      **** 
  29:.\main.c      **** uint16 board2[16] = {
  30:.\main.c      ****     -1, -1, -1, -1,
  31:.\main.c      ****     -1, -1, -1, -1,
ARM GAS  C:\Users\student\AppData\Local\Temp\cc2j29X1.s 			page 2


  32:.\main.c      ****     -1, -1, -1, -1,
  33:.\main.c      ****     -1, -1, -1, -1
  34:.\main.c      **** };
  35:.\main.c      **** 
  36:.\main.c      **** int main()
  37:.\main.c      **** {
  27              		.loc 1 37 0
  28              		.cfi_startproc
  29              		@ args = 0, pretend = 0, frame = 0
  30              		@ frame_needed = 0, uses_anonymous_args = 0
  31 0000 F8B5     		push	{r3, r4, r5, r6, r7, lr}
  32              		.cfi_def_cfa_offset 24
  33              		.cfi_offset 3, -24
  34              		.cfi_offset 4, -20
  35              		.cfi_offset 5, -16
  36              		.cfi_offset 6, -12
  37              		.cfi_offset 7, -8
  38              		.cfi_offset 14, -4
  38:.\main.c      ****     srand(time(NULL));
  39              		.loc 1 38 0
  40 0002 0020     		movs	r0, #0
  41 0004 FFF7FEFF 		bl	time
  42              	.LVL0:
  43 0008 FFF7FEFF 		bl	srand
  44              	.LVL1:
  39:.\main.c      ****     CyGlobalIntEnable;                  // Enable global interrupts
  45              		.loc 1 39 0
  46              	@ 39 ".\main.c" 1
  47 000c 62B6     		CPSIE   i
  48              	@ 0 "" 2
  40:.\main.c      ****     SPIM_1_Start();                     // initialize SPIM component
  49              		.loc 1 40 0
  50              		.thumb
  51 000e FFF7FEFF 		bl	SPIM_1_Start
  52              	.LVL2:
  41:.\main.c      ****     TouchScreen_Start();
  53              		.loc 1 41 0
  54 0012 FFF7FEFF 		bl	TouchScreen_Start
  55              	.LVL3:
  42:.\main.c      ****     
  43:.\main.c      ****     uint16* board = board1; uint16* scratchBoard = board2; uint16* tmp;
  44:.\main.c      ****     
  45:.\main.c      ****     addRandomTile(board);
  56              		.loc 1 45 0
  57 0016 284C     		ldr	r4, .L13
  58 0018 2046     		mov	r0, r4
  59 001a FFF7FEFF 		bl	addRandomTile
  60              	.LVL4:
  46:.\main.c      ****     addRandomTile(board);  
  61              		.loc 1 46 0
  62 001e 2046     		mov	r0, r4
  63 0020 FFF7FEFF 		bl	addRandomTile
  64              	.LVL5:
  47:.\main.c      ****     
  48:.\main.c      ****     displayInit();
  65              		.loc 1 48 0
  66 0024 FFF7FEFF 		bl	displayInit
ARM GAS  C:\Users\student\AppData\Local\Temp\cc2j29X1.s 			page 3


  67              	.LVL6:
  49:.\main.c      ****     drawBoard(board, scratchBoard);
  68              		.loc 1 49 0
  69 0028 244D     		ldr	r5, .L13+4
  70 002a 2046     		mov	r0, r4
  71 002c 2946     		mov	r1, r5
  72 002e FFF7FEFF 		bl	drawBoard
  73              	.LVL7:
  50:.\main.c      ****     
  51:.\main.c      ****     uint8 running = 1;
  74              		.loc 1 51 0
  75 0032 0127     		movs	r7, #1
  52:.\main.c      **** 
  53:.\main.c      ****     while (running) {        
  76              		.loc 1 53 0
  77 0034 3CE0     		b	.L2
  78              	.LVL8:
  79              	.L10:
  80              	.LBB2:
  54:.\main.c      ****         input_t input = pollInput();
  81              		.loc 1 54 0
  82 0036 FFF7FEFF 		bl	pollInput
  83              	.LVL9:
  84 003a 0646     		mov	r6, r0
  85              	.LVL10:
  55:.\main.c      ****         if (input == INPUT_KEY_UNKNOWN) continue;
  86              		.loc 1 55 0
  87 003c 0428     		cmp	r0, #4
  88 003e 37D0     		beq	.L2
  56:.\main.c      ****         
  57:.\main.c      ****         if (input == INPUT_KEY_UP) { moveUp(board, scratchBoard); swapBoards; }
  89              		.loc 1 57 0
  90 0040 30B9     		cbnz	r0, .L4
  91              		.loc 1 57 0 is_stmt 0 discriminator 1
  92 0042 2046     		mov	r0, r4
  93              	.LVL11:
  94 0044 2946     		mov	r1, r5
  95 0046 FFF7FEFF 		bl	moveUp
  96              	.LVL12:
  97 004a 2346     		mov	r3, r4
  98 004c 2C46     		mov	r4, r5
  99              	.LVL13:
 100 004e 1D46     		mov	r5, r3
 101              	.LVL14:
 102              	.L4:
  58:.\main.c      ****         if (input == INPUT_KEY_DOWN) { moveDown(board, scratchBoard); swapBoards; }
 103              		.loc 1 58 0 is_stmt 1
 104 0050 012E     		cmp	r6, #1
 105 0052 06D1     		bne	.L5
 106              		.loc 1 58 0 is_stmt 0 discriminator 1
 107 0054 2046     		mov	r0, r4
 108 0056 2946     		mov	r1, r5
 109 0058 FFF7FEFF 		bl	moveDown
 110              	.LVL15:
 111 005c 2346     		mov	r3, r4
 112 005e 2C46     		mov	r4, r5
 113              	.LVL16:
ARM GAS  C:\Users\student\AppData\Local\Temp\cc2j29X1.s 			page 4


 114 0060 1D46     		mov	r5, r3
 115              	.LVL17:
 116              	.L5:
  59:.\main.c      ****         if (input == INPUT_KEY_LEFT) { moveLeft(board, scratchBoard); swapBoards; }
 117              		.loc 1 59 0 is_stmt 1
 118 0062 022E     		cmp	r6, #2
 119 0064 06D1     		bne	.L6
 120              		.loc 1 59 0 is_stmt 0 discriminator 1
 121 0066 2046     		mov	r0, r4
 122 0068 2946     		mov	r1, r5
 123 006a FFF7FEFF 		bl	moveLeft
 124              	.LVL18:
 125 006e 2346     		mov	r3, r4
 126 0070 2C46     		mov	r4, r5
 127              	.LVL19:
 128 0072 1D46     		mov	r5, r3
 129              	.LVL20:
 130              	.L6:
  60:.\main.c      ****         if (input == INPUT_KEY_RIGHT) { moveRight(board, scratchBoard); swapBoards; }
 131              		.loc 1 60 0 is_stmt 1
 132 0074 032E     		cmp	r6, #3
 133 0076 06D1     		bne	.L7
 134              		.loc 1 60 0 is_stmt 0 discriminator 1
 135 0078 2046     		mov	r0, r4
 136 007a 2946     		mov	r1, r5
 137 007c FFF7FEFF 		bl	moveRight
 138              	.LVL21:
 139 0080 2346     		mov	r3, r4
 140 0082 2C46     		mov	r4, r5
 141              	.LVL22:
 142 0084 1D46     		mov	r5, r3
 143              	.LVL23:
 144              	.L7:
  61:.\main.c      **** 
  62:.\main.c      ****         drawBoard(board, scratchBoard);
 145              		.loc 1 62 0 is_stmt 1
 146 0086 2046     		mov	r0, r4
 147 0088 2946     		mov	r1, r5
 148 008a FFF7FEFF 		bl	drawBoard
 149              	.LVL24:
  63:.\main.c      ****         
  64:.\main.c      ****         if (boardUnchanged(board, scratchBoard)) {
 150              		.loc 1 64 0
 151 008e 2046     		mov	r0, r4
 152 0090 2946     		mov	r1, r5
 153 0092 FFF7FEFF 		bl	boardUnchanged
 154              	.LVL25:
 155 0096 08B1     		cbz	r0, .L8
  65:.\main.c      ****             playIllegalMoveSound();
 156              		.loc 1 65 0
 157 0098 FFF7FEFF 		bl	playIllegalMoveSound
 158              	.LVL26:
 159              	.L8:
  66:.\main.c      ****         }
  67:.\main.c      ****         
  68:.\main.c      ****         if (gameWon(board)) {
 160              		.loc 1 68 0
ARM GAS  C:\Users\student\AppData\Local\Temp\cc2j29X1.s 			page 5


 161 009c 2046     		mov	r0, r4
 162 009e FFF7FEFF 		bl	gameWon
 163              	.LVL27:
 164 00a2 10B1     		cbz	r0, .L9
  69:.\main.c      ****             playWinSound();
 165              		.loc 1 69 0
 166 00a4 FFF7FEFF 		bl	playWinSound
 167              	.LVL28:
  70:.\main.c      ****             running = 0;
 168              		.loc 1 70 0
 169 00a8 0027     		movs	r7, #0
 170              	.LVL29:
 171              	.L9:
  71:.\main.c      ****         }
  72:.\main.c      ****         
  73:.\main.c      ****         CyDelay(30);
 172              		.loc 1 73 0
 173 00aa 1E20     		movs	r0, #30
 174 00ac FFF7FEFF 		bl	CyDelay
 175              	.LVL30:
 176              	.L2:
 177              	.LBE2:
  53:.\main.c      ****         input_t input = pollInput();
 178              		.loc 1 53 0
 179 00b0 002F     		cmp	r7, #0
 180 00b2 C0D1     		bne	.L10
 181              	.L11:
  74:.\main.c      ****     }
  75:.\main.c      ****     
  76:.\main.c      ****     for (;;) {};
 182              		.loc 1 76 0 discriminator 1
 183 00b4 FEE7     		b	.L11
 184              	.L14:
 185 00b6 00BF     		.align	2
 186              	.L13:
 187 00b8 00000000 		.word	.LANCHOR1
 188 00bc 00000000 		.word	.LANCHOR0
 189              		.cfi_endproc
 190              	.LFE65:
 191              		.size	main, .-main
 192              		.global	board2
 193              		.global	board1
 194              		.data
 195              		.align	2
 196              		.set	.LANCHOR0,. + 0
 197              		.type	board2, %object
 198              		.size	board2, 32
 199              	board2:
 200 0000 FFFF     		.short	-1
 201 0002 FFFF     		.short	-1
 202 0004 FFFF     		.short	-1
 203 0006 FFFF     		.short	-1
 204 0008 FFFF     		.short	-1
 205 000a FFFF     		.short	-1
 206 000c FFFF     		.short	-1
 207 000e FFFF     		.short	-1
 208 0010 FFFF     		.short	-1
ARM GAS  C:\Users\student\AppData\Local\Temp\cc2j29X1.s 			page 6


 209 0012 FFFF     		.short	-1
 210 0014 FFFF     		.short	-1
 211 0016 FFFF     		.short	-1
 212 0018 FFFF     		.short	-1
 213 001a FFFF     		.short	-1
 214 001c FFFF     		.short	-1
 215 001e FFFF     		.short	-1
 216              		.bss
 217              		.align	2
 218              		.set	.LANCHOR1,. + 0
 219              		.type	board1, %object
 220              		.size	board1, 32
 221              	board1:
 222 0000 00000000 		.space	32
 222      00000000 
 222      00000000 
 222      00000000 
 222      00000000 
 223              		.text
 224              	.Letext0:
 225              		.file 2 "c:\\program files (x86)\\cypress\\psoc creator\\3.3\\psoc creator\\import\\gnu\\arm\\4.9.
 226              		.file 3 "c:\\program files (x86)\\cypress\\psoc creator\\3.3\\psoc creator\\import\\gnu\\arm\\4.9.
 227              		.file 4 "Generated_Source\\PSoC5/cytypes.h"
 228              		.file 5 ".\\display.h"
 229              		.file 6 "c:\\program files (x86)\\cypress\\psoc creator\\3.3\\psoc creator\\import\\gnu\\arm\\4.9.
 230              		.file 7 "Generated_Source\\PSoC5/core_cm3.h"
 231              		.file 8 ".\\game.h"
 232              		.file 9 "Generated_Source\\PSoC5/CyLib.h"
 233              		.file 10 "c:\\program files (x86)\\cypress\\psoc creator\\3.3\\psoc creator\\import\\gnu\\arm\\4.9
 234              		.file 11 "c:\\program files (x86)\\cypress\\psoc creator\\3.3\\psoc creator\\import\\gnu\\arm\\4.9
 235              		.file 12 "Generated_Source\\PSoC5/SPIM_1.h"
 236              		.file 13 "Generated_Source\\PSoC5/TouchScreen.h"